   1              	 .syntax unified
   2              	 .cpu cortex-m4
   3              	 .eabi_attribute 27,3
   4              	 .fpu fpv4-sp-d16
   5              	 .eabi_attribute 20,1
   6              	 .eabi_attribute 21,1
   7              	 .eabi_attribute 23,3
   8              	 .eabi_attribute 24,1
   9              	 .eabi_attribute 25,1
  10              	 .eabi_attribute 26,1
  11              	 .eabi_attribute 30,6
  12              	 .eabi_attribute 34,1
  13              	 .eabi_attribute 18,4
  14              	 .thumb
  15              	 .file "LCDConf.c"
  16              	 .text
  17              	.Ltext0:
  18              	 .cfi_sections .debug_frame
  19              	 .section .text.OLED_SPI_WriteCommand,"ax",%progbits
  20              	 .align 2
  21              	 .thumb
  22              	 .thumb_func
  24              	OLED_SPI_WriteCommand:
  25              	.LFB308:
  26              	 .file 1 "../Dave/Generated/GUI_SEGGERLIBRARY/LCDConf.c"
   1:../Dave/Generated/GUI_SEGGERLIBRARY/LCDConf.c **** /*********************************************************************
   2:../Dave/Generated/GUI_SEGGERLIBRARY/LCDConf.c **** *                SEGGER Microcontroller GmbH & Co. KG                *
   3:../Dave/Generated/GUI_SEGGERLIBRARY/LCDConf.c **** *        Solutions for real time microcontroller applications        *
   4:../Dave/Generated/GUI_SEGGERLIBRARY/LCDConf.c **** **********************************************************************
   5:../Dave/Generated/GUI_SEGGERLIBRARY/LCDConf.c **** *                                                                    *
   6:../Dave/Generated/GUI_SEGGERLIBRARY/LCDConf.c **** *        (c) 1996 - 2015  SEGGER Microcontroller GmbH & Co. KG       *
   7:../Dave/Generated/GUI_SEGGERLIBRARY/LCDConf.c **** *                                                                    *
   8:../Dave/Generated/GUI_SEGGERLIBRARY/LCDConf.c **** *        Internet: www.segger.com    Support:  support@segger.com    *
   9:../Dave/Generated/GUI_SEGGERLIBRARY/LCDConf.c **** *                                                                    *
  10:../Dave/Generated/GUI_SEGGERLIBRARY/LCDConf.c **** *********************************************************************/
  11:../Dave/Generated/GUI_SEGGERLIBRARY/LCDConf.c **** /**
  12:../Dave/Generated/GUI_SEGGERLIBRARY/LCDConf.c ****  * 
  13:../Dave/Generated/GUI_SEGGERLIBRARY/LCDConf.c ****  **************************************************************************************************
  14:../Dave/Generated/GUI_SEGGERLIBRARY/LCDConf.c ****  *
  15:../Dave/Generated/GUI_SEGGERLIBRARY/LCDConf.c ****  * Copyright (c) 2015-2020, Infineon Technologies AG
  16:../Dave/Generated/GUI_SEGGERLIBRARY/LCDConf.c ****  * All rights reserved.
  17:../Dave/Generated/GUI_SEGGERLIBRARY/LCDConf.c ****  *
  18:../Dave/Generated/GUI_SEGGERLIBRARY/LCDConf.c ****  * Redistribution and use in source and binary forms, with or without modification,are permitted pr
  19:../Dave/Generated/GUI_SEGGERLIBRARY/LCDConf.c ****  * following conditions are met:
  20:../Dave/Generated/GUI_SEGGERLIBRARY/LCDConf.c ****  *
  21:../Dave/Generated/GUI_SEGGERLIBRARY/LCDConf.c ****  *   Redistributions of source code must retain the above copyright notice, this list of conditions
  22:../Dave/Generated/GUI_SEGGERLIBRARY/LCDConf.c ****  *   disclaimer.
  23:../Dave/Generated/GUI_SEGGERLIBRARY/LCDConf.c ****  *
  24:../Dave/Generated/GUI_SEGGERLIBRARY/LCDConf.c ****  *   Redistributions in binary form must reproduce the above copyright notice, this list of conditi
  25:../Dave/Generated/GUI_SEGGERLIBRARY/LCDConf.c ****  *   following disclaimer in the documentation and/or other materials provided with the distributio
  26:../Dave/Generated/GUI_SEGGERLIBRARY/LCDConf.c ****  *
  27:../Dave/Generated/GUI_SEGGERLIBRARY/LCDConf.c ****  *   Neither the name of the copyright holders nor the names of its contributors may be used to end
  28:../Dave/Generated/GUI_SEGGERLIBRARY/LCDConf.c ****  *   products derived from this software without specific prior written permission.
  29:../Dave/Generated/GUI_SEGGERLIBRARY/LCDConf.c ****  *
  30:../Dave/Generated/GUI_SEGGERLIBRARY/LCDConf.c ****  * THIS SOFTWARE IS PROVIDED BY THE COPYRIGHT HOLDERS AND CONTRIBUTORS "AS IS" AND ANY EXPRESS OR I
  31:../Dave/Generated/GUI_SEGGERLIBRARY/LCDConf.c ****  * INCLUDING, BUT NOT LIMITED TO, THE IMPLIED WARRANTIES OF MERCHANTABILITY AND FITNESS FOR A PARTI
  32:../Dave/Generated/GUI_SEGGERLIBRARY/LCDConf.c ****  * DISCLAIMED. IN NO EVENT SHALL THE COPYRIGHT HOLDER OR CONTRIBUTORS BE LIABLE  FOR ANY DIRECT, IN
  33:../Dave/Generated/GUI_SEGGERLIBRARY/LCDConf.c ****  * SPECIAL, EXEMPLARY, OR CONSEQUENTIAL DAMAGES (INCLUDING, BUT NOT LIMITED TO, PROCUREMENT OF SUBS
  34:../Dave/Generated/GUI_SEGGERLIBRARY/LCDConf.c ****  * SERVICES; LOSS OF USE, DATA, OR PROFITS; OR BUSINESS INTERRUPTION) HOWEVER CAUSED AND ON ANY THE
  35:../Dave/Generated/GUI_SEGGERLIBRARY/LCDConf.c ****  * WHETHER IN CONTRACT, STRICT LIABILITY,OR TORT (INCLUDING NEGLIGENCE OR OTHERWISE) ARISING IN ANY
  36:../Dave/Generated/GUI_SEGGERLIBRARY/LCDConf.c ****  * USE OF THIS SOFTWARE, EVEN IF ADVISED OF THE POSSIBILITY OF SUCH DAMAGE.
  37:../Dave/Generated/GUI_SEGGERLIBRARY/LCDConf.c ****  *
  38:../Dave/Generated/GUI_SEGGERLIBRARY/LCDConf.c ****  * To improve the quality of the software, users are encouraged to share modifications, enhancement
  39:../Dave/Generated/GUI_SEGGERLIBRARY/LCDConf.c ****  * with Infineon Technologies AG (dave@infineon.com).
  40:../Dave/Generated/GUI_SEGGERLIBRARY/LCDConf.c ****  **************************************************************************************************
  41:../Dave/Generated/GUI_SEGGERLIBRARY/LCDConf.c ****  */
  42:../Dave/Generated/GUI_SEGGERLIBRARY/LCDConf.c **** /*
  43:../Dave/Generated/GUI_SEGGERLIBRARY/LCDConf.c **** ----------------------------------------------------------------------
  44:../Dave/Generated/GUI_SEGGERLIBRARY/LCDConf.c **** File        : LCDConf.c
  45:../Dave/Generated/GUI_SEGGERLIBRARY/LCDConf.c **** Purpose     : Sample display controller configuration
  46:../Dave/Generated/GUI_SEGGERLIBRARY/LCDConf.c **** 
  47:../Dave/Generated/GUI_SEGGERLIBRARY/LCDConf.c ****               Controller:     Syncoam SEPS525
  48:../Dave/Generated/GUI_SEGGERLIBRARY/LCDConf.c ****               Display driver: GUIDRV_FlexColor
  49:../Dave/Generated/GUI_SEGGERLIBRARY/LCDConf.c ****               Operation mode: 16bpp, 8 bit interface
  50:../Dave/Generated/GUI_SEGGERLIBRARY/LCDConf.c **** 
  51:../Dave/Generated/GUI_SEGGERLIBRARY/LCDConf.c **** ---------------------------END-OF-HEADER------------------------------
  52:../Dave/Generated/GUI_SEGGERLIBRARY/LCDConf.c **** */
  53:../Dave/Generated/GUI_SEGGERLIBRARY/LCDConf.c **** 
  54:../Dave/Generated/GUI_SEGGERLIBRARY/LCDConf.c **** #include "GUI.h"
  55:../Dave/Generated/GUI_SEGGERLIBRARY/LCDConf.c **** 
  56:../Dave/Generated/GUI_SEGGERLIBRARY/LCDConf.c **** #ifndef WIN32
  57:../Dave/Generated/GUI_SEGGERLIBRARY/LCDConf.c ****   #include "gui_seggerlibrary.h"
  58:../Dave/Generated/GUI_SEGGERLIBRARY/LCDConf.c **** #endif
  59:../Dave/Generated/GUI_SEGGERLIBRARY/LCDConf.c **** #include "GUIDRV_FlexColor.h"
  60:../Dave/Generated/GUI_SEGGERLIBRARY/LCDConf.c **** 
  61:../Dave/Generated/GUI_SEGGERLIBRARY/LCDConf.c **** /*********************************************************************
  62:../Dave/Generated/GUI_SEGGERLIBRARY/LCDConf.c **** *
  63:../Dave/Generated/GUI_SEGGERLIBRARY/LCDConf.c **** *       Layer configuration
  64:../Dave/Generated/GUI_SEGGERLIBRARY/LCDConf.c **** *
  65:../Dave/Generated/GUI_SEGGERLIBRARY/LCDConf.c **** **********************************************************************
  66:../Dave/Generated/GUI_SEGGERLIBRARY/LCDConf.c **** */
  67:../Dave/Generated/GUI_SEGGERLIBRARY/LCDConf.c **** //
  68:../Dave/Generated/GUI_SEGGERLIBRARY/LCDConf.c **** // Physical display size
  69:../Dave/Generated/GUI_SEGGERLIBRARY/LCDConf.c **** //
  70:../Dave/Generated/GUI_SEGGERLIBRARY/LCDConf.c **** #if !USER_DEFINED_LCD
  71:../Dave/Generated/GUI_SEGGERLIBRARY/LCDConf.c **** #define XSIZE_PHYS 160
  72:../Dave/Generated/GUI_SEGGERLIBRARY/LCDConf.c **** #define YSIZE_PHYS 128
  73:../Dave/Generated/GUI_SEGGERLIBRARY/LCDConf.c **** #define DISPLAY_ORIENTATION SYNCOAM_LCD_ORIENTATION
  74:../Dave/Generated/GUI_SEGGERLIBRARY/LCDConf.c **** #else
  75:../Dave/Generated/GUI_SEGGERLIBRARY/LCDConf.c **** #define XSIZE_PHYS GUI_LCD_XSIZE
  76:../Dave/Generated/GUI_SEGGERLIBRARY/LCDConf.c **** #define YSIZE_PHYS GUI_LCD_YSIZE
  77:../Dave/Generated/GUI_SEGGERLIBRARY/LCDConf.c **** #define DISPLAY_ORIENTATION OTHER_LCD_ORIENTATION
  78:../Dave/Generated/GUI_SEGGERLIBRARY/LCDConf.c **** #endif
  79:../Dave/Generated/GUI_SEGGERLIBRARY/LCDConf.c **** 
  80:../Dave/Generated/GUI_SEGGERLIBRARY/LCDConf.c **** //
  81:../Dave/Generated/GUI_SEGGERLIBRARY/LCDConf.c **** // Color conversion
  82:../Dave/Generated/GUI_SEGGERLIBRARY/LCDConf.c **** //
  83:../Dave/Generated/GUI_SEGGERLIBRARY/LCDConf.c **** #if !USER_DEFINED_LCD
  84:../Dave/Generated/GUI_SEGGERLIBRARY/LCDConf.c **** #define COLOR_CONVERSION GUICC_M565
  85:../Dave/Generated/GUI_SEGGERLIBRARY/LCDConf.c **** #else
  86:../Dave/Generated/GUI_SEGGERLIBRARY/LCDConf.c **** #define COLOR_CONVERSION GUICC_565
  87:../Dave/Generated/GUI_SEGGERLIBRARY/LCDConf.c **** #endif
  88:../Dave/Generated/GUI_SEGGERLIBRARY/LCDConf.c **** //
  89:../Dave/Generated/GUI_SEGGERLIBRARY/LCDConf.c **** // Display driver
  90:../Dave/Generated/GUI_SEGGERLIBRARY/LCDConf.c **** //
  91:../Dave/Generated/GUI_SEGGERLIBRARY/LCDConf.c **** #define DISPLAY_DRIVER GUIDRV_FLEXCOLOR
  92:../Dave/Generated/GUI_SEGGERLIBRARY/LCDConf.c **** 
  93:../Dave/Generated/GUI_SEGGERLIBRARY/LCDConf.c **** /* If user wants to use a different display controller then change then below pfFUNC and pfMODE mac
  94:../Dave/Generated/GUI_SEGGERLIBRARY/LCDConf.c ****  * emWin documentation GUIDRV_FlexColor_SetFunc() API usage */
  95:../Dave/Generated/GUI_SEGGERLIBRARY/LCDConf.c **** #if ((GUI_SEGGERLIBRARY_NON_READ_SUPPORT == 0) && (DISPLAY_8BPP == 1))
  96:../Dave/Generated/GUI_SEGGERLIBRARY/LCDConf.c **** #define pfFUNC GUIDRV_FLEXCOLOR_F66718
  97:../Dave/Generated/GUI_SEGGERLIBRARY/LCDConf.c **** #define pfMODE GUIDRV_FLEXCOLOR_M16C0B8
  98:../Dave/Generated/GUI_SEGGERLIBRARY/LCDConf.c **** #endif
  99:../Dave/Generated/GUI_SEGGERLIBRARY/LCDConf.c **** 
 100:../Dave/Generated/GUI_SEGGERLIBRARY/LCDConf.c **** /* Cache enabled in 8-bit mode */
 101:../Dave/Generated/GUI_SEGGERLIBRARY/LCDConf.c **** #if ((GUI_SEGGERLIBRARY_NON_READ_SUPPORT == 1) && (DISPLAY_8BPP == 1))
 102:../Dave/Generated/GUI_SEGGERLIBRARY/LCDConf.c **** #define pfFUNC GUIDRV_FLEXCOLOR_F66718
 103:../Dave/Generated/GUI_SEGGERLIBRARY/LCDConf.c **** #define pfMODE GUIDRV_FLEXCOLOR_M16C1B8
 104:../Dave/Generated/GUI_SEGGERLIBRARY/LCDConf.c **** #endif
 105:../Dave/Generated/GUI_SEGGERLIBRARY/LCDConf.c **** 
 106:../Dave/Generated/GUI_SEGGERLIBRARY/LCDConf.c **** #if ((GUI_SEGGERLIBRARY_NON_READ_SUPPORT == 0) && (DISPLAY_16BPP == 1))
 107:../Dave/Generated/GUI_SEGGERLIBRARY/LCDConf.c **** #define pfFUNC GUIDRV_FLEXCOLOR_F66708
 108:../Dave/Generated/GUI_SEGGERLIBRARY/LCDConf.c **** #define pfMODE GUIDRV_FLEXCOLOR_M16C0B16
 109:../Dave/Generated/GUI_SEGGERLIBRARY/LCDConf.c **** #endif
 110:../Dave/Generated/GUI_SEGGERLIBRARY/LCDConf.c **** 
 111:../Dave/Generated/GUI_SEGGERLIBRARY/LCDConf.c **** /* Cache enabled in 16-bit mode */
 112:../Dave/Generated/GUI_SEGGERLIBRARY/LCDConf.c **** #if ((GUI_SEGGERLIBRARY_NON_READ_SUPPORT == 1) && (DISPLAY_16BPP == 1))
 113:../Dave/Generated/GUI_SEGGERLIBRARY/LCDConf.c **** #define pfFUNC GUIDRV_FLEXCOLOR_F66708
 114:../Dave/Generated/GUI_SEGGERLIBRARY/LCDConf.c **** #define pfMODE GUIDRV_FLEXCOLOR_M16C1B16
 115:../Dave/Generated/GUI_SEGGERLIBRARY/LCDConf.c **** #endif
 116:../Dave/Generated/GUI_SEGGERLIBRARY/LCDConf.c **** 
 117:../Dave/Generated/GUI_SEGGERLIBRARY/LCDConf.c **** //
 118:../Dave/Generated/GUI_SEGGERLIBRARY/LCDConf.c **** // Orientation
 119:../Dave/Generated/GUI_SEGGERLIBRARY/LCDConf.c **** //
 120:../Dave/Generated/GUI_SEGGERLIBRARY/LCDConf.c **** 
 121:../Dave/Generated/GUI_SEGGERLIBRARY/LCDConf.c **** 
 122:../Dave/Generated/GUI_SEGGERLIBRARY/LCDConf.c **** 
 123:../Dave/Generated/GUI_SEGGERLIBRARY/LCDConf.c **** /*********************************************************************
 124:../Dave/Generated/GUI_SEGGERLIBRARY/LCDConf.c **** *
 125:../Dave/Generated/GUI_SEGGERLIBRARY/LCDConf.c **** *       Configuration checking
 126:../Dave/Generated/GUI_SEGGERLIBRARY/LCDConf.c **** *
 127:../Dave/Generated/GUI_SEGGERLIBRARY/LCDConf.c **** **********************************************************************
 128:../Dave/Generated/GUI_SEGGERLIBRARY/LCDConf.c **** */
 129:../Dave/Generated/GUI_SEGGERLIBRARY/LCDConf.c **** #ifndef   VXSIZE_PHYS
 130:../Dave/Generated/GUI_SEGGERLIBRARY/LCDConf.c ****   #define VXSIZE_PHYS XSIZE_PHYS
 131:../Dave/Generated/GUI_SEGGERLIBRARY/LCDConf.c **** #endif
 132:../Dave/Generated/GUI_SEGGERLIBRARY/LCDConf.c **** #ifndef   VYSIZE_PHYS
 133:../Dave/Generated/GUI_SEGGERLIBRARY/LCDConf.c ****   #define VYSIZE_PHYS YSIZE_PHYS
 134:../Dave/Generated/GUI_SEGGERLIBRARY/LCDConf.c **** #endif
 135:../Dave/Generated/GUI_SEGGERLIBRARY/LCDConf.c **** #ifndef   XSIZE_PHYS
 136:../Dave/Generated/GUI_SEGGERLIBRARY/LCDConf.c ****   #error Physical X size of display is not defined!
 137:../Dave/Generated/GUI_SEGGERLIBRARY/LCDConf.c **** #endif
 138:../Dave/Generated/GUI_SEGGERLIBRARY/LCDConf.c **** #ifndef   YSIZE_PHYS
 139:../Dave/Generated/GUI_SEGGERLIBRARY/LCDConf.c ****   #error Physical Y size of display is not defined!
 140:../Dave/Generated/GUI_SEGGERLIBRARY/LCDConf.c **** #endif
 141:../Dave/Generated/GUI_SEGGERLIBRARY/LCDConf.c **** #ifndef   COLOR_CONVERSION
 142:../Dave/Generated/GUI_SEGGERLIBRARY/LCDConf.c ****   #error Color conversion not defined!
 143:../Dave/Generated/GUI_SEGGERLIBRARY/LCDConf.c **** #endif
 144:../Dave/Generated/GUI_SEGGERLIBRARY/LCDConf.c **** #ifndef   DISPLAY_DRIVER
 145:../Dave/Generated/GUI_SEGGERLIBRARY/LCDConf.c ****   #error No display driver defined!
 146:../Dave/Generated/GUI_SEGGERLIBRARY/LCDConf.c **** #endif
 147:../Dave/Generated/GUI_SEGGERLIBRARY/LCDConf.c **** #ifndef   DISPLAY_ORIENTATION
 148:../Dave/Generated/GUI_SEGGERLIBRARY/LCDConf.c ****   #define DISPLAY_ORIENTATION 0
 149:../Dave/Generated/GUI_SEGGERLIBRARY/LCDConf.c **** #endif
 150:../Dave/Generated/GUI_SEGGERLIBRARY/LCDConf.c **** 
 151:../Dave/Generated/GUI_SEGGERLIBRARY/LCDConf.c **** /*********************************************************************
 152:../Dave/Generated/GUI_SEGGERLIBRARY/LCDConf.c **** *
 153:../Dave/Generated/GUI_SEGGERLIBRARY/LCDConf.c **** *       Display controller register definitions
 154:../Dave/Generated/GUI_SEGGERLIBRARY/LCDConf.c **** *
 155:../Dave/Generated/GUI_SEGGERLIBRARY/LCDConf.c **** **********************************************************************
 156:../Dave/Generated/GUI_SEGGERLIBRARY/LCDConf.c **** */
 157:../Dave/Generated/GUI_SEGGERLIBRARY/LCDConf.c **** #define REG_OSC_CTL                 0x02
 158:../Dave/Generated/GUI_SEGGERLIBRARY/LCDConf.c **** #define REG_CLOCK_DIV               0x03
 159:../Dave/Generated/GUI_SEGGERLIBRARY/LCDConf.c **** #define REG_REDUCE_CURRENT          0x04
 160:../Dave/Generated/GUI_SEGGERLIBRARY/LCDConf.c **** #define REG_DISP_ON_OFF             0x06
 161:../Dave/Generated/GUI_SEGGERLIBRARY/LCDConf.c **** #define REG_PRECHARGE_TIME_R        0x08
 162:../Dave/Generated/GUI_SEGGERLIBRARY/LCDConf.c **** #define REG_PRECHARGE_TIME_G        0x09
 163:../Dave/Generated/GUI_SEGGERLIBRARY/LCDConf.c **** #define REG_PRECHARGE_TIME_B        0x0A
 164:../Dave/Generated/GUI_SEGGERLIBRARY/LCDConf.c **** #define REG_PRECHARGE_Current_R     0x0B
 165:../Dave/Generated/GUI_SEGGERLIBRARY/LCDConf.c **** #define REG_PRECHARGE_Current_G     0x0C
 166:../Dave/Generated/GUI_SEGGERLIBRARY/LCDConf.c **** #define REG_PRECHARGE_Current_B     0x0D
 167:../Dave/Generated/GUI_SEGGERLIBRARY/LCDConf.c **** #define REG_DRIVING_CURRENT_R       0x10
 168:../Dave/Generated/GUI_SEGGERLIBRARY/LCDConf.c **** #define REG_DRIVING_CURRENT_G       0x11
 169:../Dave/Generated/GUI_SEGGERLIBRARY/LCDConf.c **** #define REG_DRIVING_CURRENT_B       0x12
 170:../Dave/Generated/GUI_SEGGERLIBRARY/LCDConf.c **** #define REG_DISPLAY_MODE_SET        0x13
 171:../Dave/Generated/GUI_SEGGERLIBRARY/LCDConf.c **** #define REG_RGB_IF                  0x14
 172:../Dave/Generated/GUI_SEGGERLIBRARY/LCDConf.c **** #define REG_MEMORY_WRITE_MODE       0x16
 173:../Dave/Generated/GUI_SEGGERLIBRARY/LCDConf.c **** #define REG_MX1_ADDR                0x17
 174:../Dave/Generated/GUI_SEGGERLIBRARY/LCDConf.c **** #define REG_MX2_ADDR                0x18
 175:../Dave/Generated/GUI_SEGGERLIBRARY/LCDConf.c **** #define REG_MY1_ADDR                0x19
 176:../Dave/Generated/GUI_SEGGERLIBRARY/LCDConf.c **** #define REG_MY2_ADDR                0x1A
 177:../Dave/Generated/GUI_SEGGERLIBRARY/LCDConf.c **** #define REG_MEMORY_ACCESS_POINTER_X 0x20
 178:../Dave/Generated/GUI_SEGGERLIBRARY/LCDConf.c **** #define REG_MEMORY_ACCESS_POINTER_Y 0x21
 179:../Dave/Generated/GUI_SEGGERLIBRARY/LCDConf.c **** #define REG_DDRAM_DATA_ACCESS_PORT  0x22
 180:../Dave/Generated/GUI_SEGGERLIBRARY/LCDConf.c **** #define REG_DUTY                    0x28
 181:../Dave/Generated/GUI_SEGGERLIBRARY/LCDConf.c **** #define REG_DSL                     0x29
 182:../Dave/Generated/GUI_SEGGERLIBRARY/LCDConf.c **** #define REG_D1_DDRAM_FAC            0x2E
 183:../Dave/Generated/GUI_SEGGERLIBRARY/LCDConf.c **** #define REG_D1_DDRAM_FAR            0x2F
 184:../Dave/Generated/GUI_SEGGERLIBRARY/LCDConf.c **** #define REG_D2_DDRAM_SAC            0x31
 185:../Dave/Generated/GUI_SEGGERLIBRARY/LCDConf.c **** #define REG_D2_DDRAM_SAR            0x32
 186:../Dave/Generated/GUI_SEGGERLIBRARY/LCDConf.c **** #define REG_SCR1_FX1                0x33
 187:../Dave/Generated/GUI_SEGGERLIBRARY/LCDConf.c **** #define REG_SCR1_FX2                0x34
 188:../Dave/Generated/GUI_SEGGERLIBRARY/LCDConf.c **** #define REG_SCR1_FY1                0x35
 189:../Dave/Generated/GUI_SEGGERLIBRARY/LCDConf.c **** #define REG_SCR1_FY2                0x36
 190:../Dave/Generated/GUI_SEGGERLIBRARY/LCDConf.c **** #define REG_SCR2_SX1                0x37
 191:../Dave/Generated/GUI_SEGGERLIBRARY/LCDConf.c **** #define REG_SCR2_SX2                0x38
 192:../Dave/Generated/GUI_SEGGERLIBRARY/LCDConf.c **** #define REG_SCR2_SY1                0x39
 193:../Dave/Generated/GUI_SEGGERLIBRARY/LCDConf.c **** #define REG_SCR2_SY2                0x3A
 194:../Dave/Generated/GUI_SEGGERLIBRARY/LCDConf.c **** #define REG_SCREEN_SAVER_CONTEROL   0x3B
 195:../Dave/Generated/GUI_SEGGERLIBRARY/LCDConf.c **** #define REG_SCREEN_SAVER_MODE       0x3D
 196:../Dave/Generated/GUI_SEGGERLIBRARY/LCDConf.c **** #define REG_SS_SCR1_FU              0x3E
 197:../Dave/Generated/GUI_SEGGERLIBRARY/LCDConf.c **** #define REG_SS_SCR1_MXY             0x3F
 198:../Dave/Generated/GUI_SEGGERLIBRARY/LCDConf.c **** #define REG_SS_SCR2_FU              0x40
 199:../Dave/Generated/GUI_SEGGERLIBRARY/LCDConf.c **** #define REG_SS_SCR2_MXY             0x41
 200:../Dave/Generated/GUI_SEGGERLIBRARY/LCDConf.c **** #define REG_SS_SCR2_SX1             0x47
 201:../Dave/Generated/GUI_SEGGERLIBRARY/LCDConf.c **** #define REG_SS_SCR2_SX2             0x48
 202:../Dave/Generated/GUI_SEGGERLIBRARY/LCDConf.c **** #define REG_SS_SCR2_SY1             0x49
 203:../Dave/Generated/GUI_SEGGERLIBRARY/LCDConf.c **** #define REG_SS_SCR2_SY2             0x4A
 204:../Dave/Generated/GUI_SEGGERLIBRARY/LCDConf.c **** #define REG_IREF                    0x80
 205:../Dave/Generated/GUI_SEGGERLIBRARY/LCDConf.c **** 
 206:../Dave/Generated/GUI_SEGGERLIBRARY/LCDConf.c **** 
 207:../Dave/Generated/GUI_SEGGERLIBRARY/LCDConf.c **** /*********************************************************************
 208:../Dave/Generated/GUI_SEGGERLIBRARY/LCDConf.c **** *
 209:../Dave/Generated/GUI_SEGGERLIBRARY/LCDConf.c **** *       OLED_SPI_WriteCommand
 210:../Dave/Generated/GUI_SEGGERLIBRARY/LCDConf.c **** */
 211:../Dave/Generated/GUI_SEGGERLIBRARY/LCDConf.c **** #if (!USER_DEFINED_LCD && SPI_INTERFACE == 1)
 212:../Dave/Generated/GUI_SEGGERLIBRARY/LCDConf.c **** #ifndef WIN32
 213:../Dave/Generated/GUI_SEGGERLIBRARY/LCDConf.c **** #if (DISPLAY_8BPP == 1)
 214:../Dave/Generated/GUI_SEGGERLIBRARY/LCDConf.c **** static void OLED_SPI_WriteCommand(U8 Reg, U8 Para) {
  27              	 .loc 1 214 0
  28              	 .cfi_startproc
  29              	 
  30              	 
  31 0000 80B5     	 push {r7,lr}
  32              	.LCFI0:
  33              	 .cfi_def_cfa_offset 8
  34              	 .cfi_offset 7,-8
  35              	 .cfi_offset 14,-4
  36 0002 82B0     	 sub sp,sp,#8
  37              	.LCFI1:
  38              	 .cfi_def_cfa_offset 16
  39 0004 00AF     	 add r7,sp,#0
  40              	.LCFI2:
  41              	 .cfi_def_cfa_register 7
  42 0006 0346     	 mov r3,r0
  43 0008 0A46     	 mov r2,r1
  44 000a FB71     	 strb r3,[r7,#7]
  45 000c 1346     	 mov r3,r2
  46 000e BB71     	 strb r3,[r7,#6]
 215:../Dave/Generated/GUI_SEGGERLIBRARY/LCDConf.c **** 	GUI_SEGGERLIBRARY_WriteCmdByte(Reg);
  47              	 .loc 1 215 0
  48 0010 FB79     	 ldrb r3,[r7,#7]
  49 0012 1846     	 mov r0,r3
  50 0014 FFF7FEFF 	 bl GUI_SEGGERLIBRARY_WriteCmdByte
 216:../Dave/Generated/GUI_SEGGERLIBRARY/LCDConf.c **** 	GUI_SEGGERLIBRARY_WriteDataByte(Para);
  51              	 .loc 1 216 0
  52 0018 BB79     	 ldrb r3,[r7,#6]
  53 001a 1846     	 mov r0,r3
  54 001c FFF7FEFF 	 bl GUI_SEGGERLIBRARY_WriteDataByte
 217:../Dave/Generated/GUI_SEGGERLIBRARY/LCDConf.c **** }
  55              	 .loc 1 217 0
  56 0020 0837     	 adds r7,r7,#8
  57              	.LCFI3:
  58              	 .cfi_def_cfa_offset 8
  59 0022 BD46     	 mov sp,r7
  60              	.LCFI4:
  61              	 .cfi_def_cfa_register 13
  62              	 
  63 0024 80BD     	 pop {r7,pc}
  64              	 .cfi_endproc
  65              	.LFE308:
  67 0026 00BF     	 .section .text.OLED_SPI_InitController,"ax",%progbits
  68              	 .align 2
  69              	 .thumb
  70              	 .thumb_func
  72              	OLED_SPI_InitController:
  73              	.LFB309:
 218:../Dave/Generated/GUI_SEGGERLIBRARY/LCDConf.c **** #endif
 219:../Dave/Generated/GUI_SEGGERLIBRARY/LCDConf.c **** 
 220:../Dave/Generated/GUI_SEGGERLIBRARY/LCDConf.c **** #if (DISPLAY_16BPP == 1)
 221:../Dave/Generated/GUI_SEGGERLIBRARY/LCDConf.c **** static void OLED_SPI_WriteCommand(U16 Reg, U16 Para) {
 222:../Dave/Generated/GUI_SEGGERLIBRARY/LCDConf.c **** 	User_LCD_16_WriteCmd(Reg);
 223:../Dave/Generated/GUI_SEGGERLIBRARY/LCDConf.c **** 	User_LCD_16_WriteData(Para);
 224:../Dave/Generated/GUI_SEGGERLIBRARY/LCDConf.c **** }
 225:../Dave/Generated/GUI_SEGGERLIBRARY/LCDConf.c **** #endif
 226:../Dave/Generated/GUI_SEGGERLIBRARY/LCDConf.c **** 
 227:../Dave/Generated/GUI_SEGGERLIBRARY/LCDConf.c **** #endif
 228:../Dave/Generated/GUI_SEGGERLIBRARY/LCDConf.c **** 
 229:../Dave/Generated/GUI_SEGGERLIBRARY/LCDConf.c **** /*********************************************************************
 230:../Dave/Generated/GUI_SEGGERLIBRARY/LCDConf.c **** *
 231:../Dave/Generated/GUI_SEGGERLIBRARY/LCDConf.c **** *       OLED_InitController
 232:../Dave/Generated/GUI_SEGGERLIBRARY/LCDConf.c **** *
 233:../Dave/Generated/GUI_SEGGERLIBRARY/LCDConf.c **** * Purpose:
 234:../Dave/Generated/GUI_SEGGERLIBRARY/LCDConf.c **** *   Initializes the display controller
 235:../Dave/Generated/GUI_SEGGERLIBRARY/LCDConf.c **** */
 236:../Dave/Generated/GUI_SEGGERLIBRARY/LCDConf.c **** static void OLED_SPI_InitController(void) {
  74              	 .loc 1 236 0
  75              	 .cfi_startproc
  76              	 
  77              	 
  78 0000 80B5     	 push {r7,lr}
  79              	.LCFI5:
  80              	 .cfi_def_cfa_offset 8
  81              	 .cfi_offset 7,-8
  82              	 .cfi_offset 14,-4
  83 0002 00AF     	 add r7,sp,#0
  84              	.LCFI6:
  85              	 .cfi_def_cfa_register 7
 237:../Dave/Generated/GUI_SEGGERLIBRARY/LCDConf.c ****   #ifndef WIN32
 238:../Dave/Generated/GUI_SEGGERLIBRARY/LCDConf.c **** //  GUI_X_Delay(10);
 239:../Dave/Generated/GUI_SEGGERLIBRARY/LCDConf.c **** 
 240:../Dave/Generated/GUI_SEGGERLIBRARY/LCDConf.c ****   OLED_SPI_WriteCommand(REG_DISP_ON_OFF, 0x00);
  86              	 .loc 1 240 0
  87 0004 0620     	 movs r0,#6
  88 0006 0021     	 movs r1,#0
  89 0008 FFF7FEFF 	 bl OLED_SPI_WriteCommand
 241:../Dave/Generated/GUI_SEGGERLIBRARY/LCDConf.c ****   OLED_SPI_WriteCommand(5, 0x00);
  90              	 .loc 1 241 0
  91 000c 0520     	 movs r0,#5
  92 000e 0021     	 movs r1,#0
  93 0010 FFF7FEFF 	 bl OLED_SPI_WriteCommand
 242:../Dave/Generated/GUI_SEGGERLIBRARY/LCDConf.c ****   OLED_SPI_WriteCommand(REG_REDUCE_CURRENT, 0x03);
  94              	 .loc 1 242 0
  95 0014 0420     	 movs r0,#4
  96 0016 0321     	 movs r1,#3
  97 0018 FFF7FEFF 	 bl OLED_SPI_WriteCommand
 243:../Dave/Generated/GUI_SEGGERLIBRARY/LCDConf.c ****   //DelayMS(10);
 244:../Dave/Generated/GUI_SEGGERLIBRARY/LCDConf.c ****   OLED_SPI_WriteCommand(REG_REDUCE_CURRENT, 0x00);          // Reg:04h Action: Normal current and P
  98              	 .loc 1 244 0
  99 001c 0420     	 movs r0,#4
 100 001e 0021     	 movs r1,#0
 101 0020 FFF7FEFF 	 bl OLED_SPI_WriteCommand
 245:../Dave/Generated/GUI_SEGGERLIBRARY/LCDConf.c ****   //DelayMS(10);
 246:../Dave/Generated/GUI_SEGGERLIBRARY/LCDConf.c ****   OLED_SPI_WriteCommand(REG_SCREEN_SAVER_CONTEROL, 0x00);   // Reg:3Bh Action: Screen Saver OFF
 102              	 .loc 1 246 0
 103 0024 3B20     	 movs r0,#59
 104 0026 0021     	 movs r1,#0
 105 0028 FFF7FEFF 	 bl OLED_SPI_WriteCommand
 247:../Dave/Generated/GUI_SEGGERLIBRARY/LCDConf.c ****   OLED_SPI_WriteCommand(REG_OSC_CTL, 0x01);                 // Reg:02h Action: Export1 internal clo
 106              	 .loc 1 247 0
 107 002c 0220     	 movs r0,#2
 108 002e 0121     	 movs r1,#1
 109 0030 FFF7FEFF 	 bl OLED_SPI_WriteCommand
 248:../Dave/Generated/GUI_SEGGERLIBRARY/LCDConf.c ****   OLED_SPI_WriteCommand(REG_CLOCK_DIV, 0x90);               // Reg:03h Action: FR=120Hz DIV=1
 110              	 .loc 1 248 0
 111 0034 0320     	 movs r0,#3
 112 0036 9021     	 movs r1,#144
 113 0038 FFF7FEFF 	 bl OLED_SPI_WriteCommand
 249:../Dave/Generated/GUI_SEGGERLIBRARY/LCDConf.c ****   OLED_SPI_WriteCommand(REG_IREF, 0x00);                    // Reg:80h Action: PDAC OFF, DDAC OFF/R
 114              	 .loc 1 249 0
 115 003c 8020     	 movs r0,#128
 116 003e 0021     	 movs r1,#0
 117 0040 FFF7FEFF 	 bl OLED_SPI_WriteCommand
 250:../Dave/Generated/GUI_SEGGERLIBRARY/LCDConf.c ****   OLED_SPI_WriteCommand(REG_PRECHARGE_TIME_R, 0x01);        // Reg:08h Action: set color R precharg
 118              	 .loc 1 250 0
 119 0044 0820     	 movs r0,#8
 120 0046 0121     	 movs r1,#1
 121 0048 FFF7FEFF 	 bl OLED_SPI_WriteCommand
 251:../Dave/Generated/GUI_SEGGERLIBRARY/LCDConf.c ****   OLED_SPI_WriteCommand(REG_PRECHARGE_TIME_G, 0x01);        // Reg:09h Action: set color G precharg
 122              	 .loc 1 251 0
 123 004c 0920     	 movs r0,#9
 124 004e 0121     	 movs r1,#1
 125 0050 FFF7FEFF 	 bl OLED_SPI_WriteCommand
 252:../Dave/Generated/GUI_SEGGERLIBRARY/LCDConf.c ****   OLED_SPI_WriteCommand(REG_PRECHARGE_TIME_B, 0x01);        // Reg:0Ah Action: set color B precharg
 126              	 .loc 1 252 0
 127 0054 0A20     	 movs r0,#10
 128 0056 0121     	 movs r1,#1
 129 0058 FFF7FEFF 	 bl OLED_SPI_WriteCommand
 253:../Dave/Generated/GUI_SEGGERLIBRARY/LCDConf.c ****   OLED_SPI_WriteCommand(REG_PRECHARGE_Current_R, 0x0a);     // Reg:0Bh Action: set color R precharg
 130              	 .loc 1 253 0
 131 005c 0B20     	 movs r0,#11
 132 005e 0A21     	 movs r1,#10
 133 0060 FFF7FEFF 	 bl OLED_SPI_WriteCommand
 254:../Dave/Generated/GUI_SEGGERLIBRARY/LCDConf.c ****   OLED_SPI_WriteCommand(REG_PRECHARGE_Current_G, 0x0a);     // Reg:0Ch Action: set color G precharg
 134              	 .loc 1 254 0
 135 0064 0C20     	 movs r0,#12
 136 0066 0A21     	 movs r1,#10
 137 0068 FFF7FEFF 	 bl OLED_SPI_WriteCommand
 255:../Dave/Generated/GUI_SEGGERLIBRARY/LCDConf.c ****   OLED_SPI_WriteCommand(REG_PRECHARGE_Current_B, 0x0a);     // Reg:0Dh Action: set color B precharg
 138              	 .loc 1 255 0
 139 006c 0D20     	 movs r0,#13
 140 006e 0A21     	 movs r1,#10
 141 0070 FFF7FEFF 	 bl OLED_SPI_WriteCommand
 256:../Dave/Generated/GUI_SEGGERLIBRARY/LCDConf.c ****   OLED_SPI_WriteCommand(REG_DRIVING_CURRENT_R, 0x46);       // Reg:10h Action: set color R dot driv
 142              	 .loc 1 256 0
 143 0074 1020     	 movs r0,#16
 144 0076 4621     	 movs r1,#70
 145 0078 FFF7FEFF 	 bl OLED_SPI_WriteCommand
 257:../Dave/Generated/GUI_SEGGERLIBRARY/LCDConf.c ****   OLED_SPI_WriteCommand(REG_DRIVING_CURRENT_G, 0x38);       // Reg:11h Action: set color G dot driv
 146              	 .loc 1 257 0
 147 007c 1120     	 movs r0,#17
 148 007e 3821     	 movs r1,#56
 149 0080 FFF7FEFF 	 bl OLED_SPI_WriteCommand
 258:../Dave/Generated/GUI_SEGGERLIBRARY/LCDConf.c ****   OLED_SPI_WriteCommand(REG_DRIVING_CURRENT_B, 0x3A);       // Reg:12h Action: set color B dot driv
 150              	 .loc 1 258 0
 151 0084 1220     	 movs r0,#18
 152 0086 3A21     	 movs r1,#58
 153 0088 FFF7FEFF 	 bl OLED_SPI_WriteCommand
 259:../Dave/Generated/GUI_SEGGERLIBRARY/LCDConf.c ****   OLED_SPI_WriteCommand(REG_DISPLAY_MODE_SET, 0x00);        // Reg:13h Action: Col D0 to D159/col n
 154              	 .loc 1 259 0
 155 008c 1320     	 movs r0,#19
 156 008e 0021     	 movs r1,#0
 157 0090 FFF7FEFF 	 bl OLED_SPI_WriteCommand
 260:../Dave/Generated/GUI_SEGGERLIBRARY/LCDConf.c ****   OLED_SPI_WriteCommand(REG_RGB_IF, 0x31);                  // Reg:14h Action: MPU mode
 158              	 .loc 1 260 0
 159 0094 1420     	 movs r0,#20
 160 0096 3121     	 movs r1,#49
 161 0098 FFF7FEFF 	 bl OLED_SPI_WriteCommand
 261:../Dave/Generated/GUI_SEGGERLIBRARY/LCDConf.c ****   OLED_SPI_WriteCommand(15, 0x00);
 162              	 .loc 1 261 0
 163 009c 0F20     	 movs r0,#15
 164 009e 0021     	 movs r1,#0
 165 00a0 FFF7FEFF 	 bl OLED_SPI_WriteCommand
 262:../Dave/Generated/GUI_SEGGERLIBRARY/LCDConf.c ****   OLED_SPI_WriteCommand(REG_MEMORY_WRITE_MODE, 0x66);       // Reg:16h Action: 8bits dual transfer,
 166              	 .loc 1 262 0
 167 00a4 1620     	 movs r0,#22
 168 00a6 6621     	 movs r1,#102
 169 00a8 FFF7FEFF 	 bl OLED_SPI_WriteCommand
 263:../Dave/Generated/GUI_SEGGERLIBRARY/LCDConf.c ****   OLED_SPI_WriteCommand(REG_MX1_ADDR, 0x00);                // Reg:17h Action: Memory addr.X start
 170              	 .loc 1 263 0
 171 00ac 1720     	 movs r0,#23
 172 00ae 0021     	 movs r1,#0
 173 00b0 FFF7FEFF 	 bl OLED_SPI_WriteCommand
 264:../Dave/Generated/GUI_SEGGERLIBRARY/LCDConf.c ****   OLED_SPI_WriteCommand(REG_MX2_ADDR, 0x9f);                // Reg:18h Action: Memory addr.X end
 174              	 .loc 1 264 0
 175 00b4 1820     	 movs r0,#24
 176 00b6 9F21     	 movs r1,#159
 177 00b8 FFF7FEFF 	 bl OLED_SPI_WriteCommand
 265:../Dave/Generated/GUI_SEGGERLIBRARY/LCDConf.c ****   OLED_SPI_WriteCommand(REG_MY1_ADDR, 0x00);                // Reg:18h Action: Memory addr.Y start
 178              	 .loc 1 265 0
 179 00bc 1920     	 movs r0,#25
 180 00be 0021     	 movs r1,#0
 181 00c0 FFF7FEFF 	 bl OLED_SPI_WriteCommand
 266:../Dave/Generated/GUI_SEGGERLIBRARY/LCDConf.c ****   OLED_SPI_WriteCommand(REG_MY2_ADDR, 0x7f);                // Reg:1Ah Action: Memory addr.Y end
 182              	 .loc 1 266 0
 183 00c4 1A20     	 movs r0,#26
 184 00c6 7F21     	 movs r1,#127
 185 00c8 FFF7FEFF 	 bl OLED_SPI_WriteCommand
 267:../Dave/Generated/GUI_SEGGERLIBRARY/LCDConf.c ****   OLED_SPI_WriteCommand(REG_MEMORY_ACCESS_POINTER_X, 0x00); // Reg:20h Action: Memory X start addr.
 186              	 .loc 1 267 0
 187 00cc 2020     	 movs r0,#32
 188 00ce 0021     	 movs r1,#0
 189 00d0 FFF7FEFF 	 bl OLED_SPI_WriteCommand
 268:../Dave/Generated/GUI_SEGGERLIBRARY/LCDConf.c ****   OLED_SPI_WriteCommand(REG_MEMORY_ACCESS_POINTER_Y, 0x00); // Reg:21h Action: Memory Y start addr.
 190              	 .loc 1 268 0
 191 00d4 2120     	 movs r0,#33
 192 00d6 0021     	 movs r1,#0
 193 00d8 FFF7FEFF 	 bl OLED_SPI_WriteCommand
 269:../Dave/Generated/GUI_SEGGERLIBRARY/LCDConf.c ****   OLED_SPI_WriteCommand(REG_DUTY, 0x7f);                    // Reg:28h Action: Display duty ratio
 194              	 .loc 1 269 0
 195 00dc 2820     	 movs r0,#40
 196 00de 7F21     	 movs r1,#127
 197 00e0 FFF7FEFF 	 bl OLED_SPI_WriteCommand
 270:../Dave/Generated/GUI_SEGGERLIBRARY/LCDConf.c ****   OLED_SPI_WriteCommand(REG_DSL, 0x00);                     // Reg:29h Action: Display start line
 198              	 .loc 1 270 0
 199 00e4 2920     	 movs r0,#41
 200 00e6 0021     	 movs r1,#0
 201 00e8 FFF7FEFF 	 bl OLED_SPI_WriteCommand
 271:../Dave/Generated/GUI_SEGGERLIBRARY/LCDConf.c ****   OLED_SPI_WriteCommand(REG_D1_DDRAM_FAC, 0x00);            // Reg:2Eh Action: Display First screen
 202              	 .loc 1 271 0
 203 00ec 2E20     	 movs r0,#46
 204 00ee 0021     	 movs r1,#0
 205 00f0 FFF7FEFF 	 bl OLED_SPI_WriteCommand
 272:../Dave/Generated/GUI_SEGGERLIBRARY/LCDConf.c ****   OLED_SPI_WriteCommand(REG_D1_DDRAM_FAR, 0x00);            // Reg:2Fh Action: Display First screen
 206              	 .loc 1 272 0
 207 00f4 2F20     	 movs r0,#47
 208 00f6 0021     	 movs r1,#0
 209 00f8 FFF7FEFF 	 bl OLED_SPI_WriteCommand
 273:../Dave/Generated/GUI_SEGGERLIBRARY/LCDConf.c ****   OLED_SPI_WriteCommand(REG_D2_DDRAM_SAC, 0x00);            // Reg:31h Action: Display Second scree
 210              	 .loc 1 273 0
 211 00fc 3120     	 movs r0,#49
 212 00fe 0021     	 movs r1,#0
 213 0100 FFF7FEFF 	 bl OLED_SPI_WriteCommand
 274:../Dave/Generated/GUI_SEGGERLIBRARY/LCDConf.c ****   OLED_SPI_WriteCommand(REG_D2_DDRAM_SAR, 0x00);            // Reg:32h Action: Display Second scree
 214              	 .loc 1 274 0
 215 0104 3220     	 movs r0,#50
 216 0106 0021     	 movs r1,#0
 217 0108 FFF7FEFF 	 bl OLED_SPI_WriteCommand
 275:../Dave/Generated/GUI_SEGGERLIBRARY/LCDConf.c ****   OLED_SPI_WriteCommand(REG_SCR1_FX1, 0x00);                // Reg:33h Action: Display size X start
 218              	 .loc 1 275 0
 219 010c 3320     	 movs r0,#51
 220 010e 0021     	 movs r1,#0
 221 0110 FFF7FEFF 	 bl OLED_SPI_WriteCommand
 276:../Dave/Generated/GUI_SEGGERLIBRARY/LCDConf.c ****   OLED_SPI_WriteCommand(REG_SCR1_FX2, 0x9f);                // Reg:34h Action: Display size X end
 222              	 .loc 1 276 0
 223 0114 3420     	 movs r0,#52
 224 0116 9F21     	 movs r1,#159
 225 0118 FFF7FEFF 	 bl OLED_SPI_WriteCommand
 277:../Dave/Generated/GUI_SEGGERLIBRARY/LCDConf.c ****   OLED_SPI_WriteCommand(REG_SCR1_FY1, 0x00);                // Reg:35h Action: Display size Y start
 226              	 .loc 1 277 0
 227 011c 3520     	 movs r0,#53
 228 011e 0021     	 movs r1,#0
 229 0120 FFF7FEFF 	 bl OLED_SPI_WriteCommand
 278:../Dave/Generated/GUI_SEGGERLIBRARY/LCDConf.c ****   OLED_SPI_WriteCommand(REG_SCR1_FY2, 0x7f);                // Reg:36h Action: Display size Y end
 230              	 .loc 1 278 0
 231 0124 3620     	 movs r0,#54
 232 0126 7F21     	 movs r1,#127
 233 0128 FFF7FEFF 	 bl OLED_SPI_WriteCommand
 279:../Dave/Generated/GUI_SEGGERLIBRARY/LCDConf.c ****   //DelayMS(100);
 280:../Dave/Generated/GUI_SEGGERLIBRARY/LCDConf.c ****   OLED_SPI_WriteCommand(REG_DISP_ON_OFF, 0x01);             // Reg:06h Action: Scan signal is high 
 234              	 .loc 1 280 0
 235 012c 0620     	 movs r0,#6
 236 012e 0121     	 movs r1,#1
 237 0130 FFF7FEFF 	 bl OLED_SPI_WriteCommand
 281:../Dave/Generated/GUI_SEGGERLIBRARY/LCDConf.c ****   #endif
 282:../Dave/Generated/GUI_SEGGERLIBRARY/LCDConf.c **** }
 238              	 .loc 1 282 0
 239 0134 80BD     	 pop {r7,pc}
 240              	 .cfi_endproc
 241              	.LFE309:
 243 0136 00BF     	 .section .text.LCD_X_Config,"ax",%progbits
 244              	 .align 2
 245              	 .global LCD_X_Config
 246              	 .thumb
 247              	 .thumb_func
 249              	LCD_X_Config:
 250              	.LFB310:
 283:../Dave/Generated/GUI_SEGGERLIBRARY/LCDConf.c **** #endif
 284:../Dave/Generated/GUI_SEGGERLIBRARY/LCDConf.c **** /*********************************************************************
 285:../Dave/Generated/GUI_SEGGERLIBRARY/LCDConf.c **** *
 286:../Dave/Generated/GUI_SEGGERLIBRARY/LCDConf.c **** *       Public code
 287:../Dave/Generated/GUI_SEGGERLIBRARY/LCDConf.c **** *
 288:../Dave/Generated/GUI_SEGGERLIBRARY/LCDConf.c **** **********************************************************************
 289:../Dave/Generated/GUI_SEGGERLIBRARY/LCDConf.c **** */
 290:../Dave/Generated/GUI_SEGGERLIBRARY/LCDConf.c **** /*********************************************************************
 291:../Dave/Generated/GUI_SEGGERLIBRARY/LCDConf.c **** *
 292:../Dave/Generated/GUI_SEGGERLIBRARY/LCDConf.c **** *       LCD_X_Config
 293:../Dave/Generated/GUI_SEGGERLIBRARY/LCDConf.c **** *
 294:../Dave/Generated/GUI_SEGGERLIBRARY/LCDConf.c **** * Purpose:
 295:../Dave/Generated/GUI_SEGGERLIBRARY/LCDConf.c **** *   Called during the initialization process in order to set up the
 296:../Dave/Generated/GUI_SEGGERLIBRARY/LCDConf.c **** *   display driver configuration.
 297:../Dave/Generated/GUI_SEGGERLIBRARY/LCDConf.c **** *   
 298:../Dave/Generated/GUI_SEGGERLIBRARY/LCDConf.c **** */
 299:../Dave/Generated/GUI_SEGGERLIBRARY/LCDConf.c **** void LCD_X_Config(void) {
 251              	 .loc 1 299 0
 252              	 .cfi_startproc
 253              	 
 254              	 
 255 0000 80B5     	 push {r7,lr}
 256              	.LCFI7:
 257              	 .cfi_def_cfa_offset 8
 258              	 .cfi_offset 7,-8
 259              	 .cfi_offset 14,-4
 260 0002 A0B0     	 sub sp,sp,#128
 261              	.LCFI8:
 262              	 .cfi_def_cfa_offset 136
 263 0004 00AF     	 add r7,sp,#0
 264              	.LCFI9:
 265              	 .cfi_def_cfa_register 7
 300:../Dave/Generated/GUI_SEGGERLIBRARY/LCDConf.c ****   GUI_DEVICE * pDevice;
 301:../Dave/Generated/GUI_SEGGERLIBRARY/LCDConf.c ****   GUI_PORT_API PortAPI = {0};
 266              	 .loc 1 301 0
 267 0006 07F11403 	 add r3,r7,#20
 268 000a 6822     	 movs r2,#104
 269 000c 1846     	 mov r0,r3
 270 000e 0021     	 movs r1,#0
 271 0010 FFF7FEFF 	 bl memset
 302:../Dave/Generated/GUI_SEGGERLIBRARY/LCDConf.c ****   CONFIG_FLEXCOLOR Config = {0};
 272              	 .loc 1 302 0
 273 0014 3B46     	 mov r3,r7
 274 0016 0022     	 movs r2,#0
 275 0018 1A60     	 str r2,[r3]
 276 001a 0433     	 adds r3,r3,#4
 277 001c 0022     	 movs r2,#0
 278 001e 1A60     	 str r2,[r3]
 279 0020 0433     	 adds r3,r3,#4
 280 0022 0022     	 movs r2,#0
 281 0024 1A60     	 str r2,[r3]
 282 0026 0433     	 adds r3,r3,#4
 283 0028 0022     	 movs r2,#0
 284 002a 1A60     	 str r2,[r3]
 285 002c 0433     	 adds r3,r3,#4
 286 002e 0022     	 movs r2,#0
 287 0030 1A60     	 str r2,[r3]
 288 0032 0433     	 adds r3,r3,#4
 303:../Dave/Generated/GUI_SEGGERLIBRARY/LCDConf.c **** 
 304:../Dave/Generated/GUI_SEGGERLIBRARY/LCDConf.c ****   //
 305:../Dave/Generated/GUI_SEGGERLIBRARY/LCDConf.c ****   // Set display driver and color conversion for 1st layer
 306:../Dave/Generated/GUI_SEGGERLIBRARY/LCDConf.c ****   //
 307:../Dave/Generated/GUI_SEGGERLIBRARY/LCDConf.c ****   pDevice = GUI_DEVICE_CreateAndLink(DISPLAY_DRIVER, COLOR_CONVERSION, 0, 0);
 289              	 .loc 1 307 0
 290 0034 1648     	 ldr r0,.L4
 291 0036 1749     	 ldr r1,.L4+4
 292 0038 0022     	 movs r2,#0
 293 003a 0023     	 movs r3,#0
 294 003c FFF7FEFF 	 bl GUI_DEVICE_CreateAndLink
 295 0040 F867     	 str r0,[r7,#124]
 308:../Dave/Generated/GUI_SEGGERLIBRARY/LCDConf.c ****   //
 309:../Dave/Generated/GUI_SEGGERLIBRARY/LCDConf.c ****   // Display size configuration
 310:../Dave/Generated/GUI_SEGGERLIBRARY/LCDConf.c ****   //
 311:../Dave/Generated/GUI_SEGGERLIBRARY/LCDConf.c ****   LCD_SetSizeEx (0, XSIZE_PHYS,  YSIZE_PHYS);
 296              	 .loc 1 311 0
 297 0042 0020     	 movs r0,#0
 298 0044 A021     	 movs r1,#160
 299 0046 8022     	 movs r2,#128
 300 0048 FFF7FEFF 	 bl LCD_SetSizeEx
 312:../Dave/Generated/GUI_SEGGERLIBRARY/LCDConf.c ****   LCD_SetVSizeEx(0, VXSIZE_PHYS, VYSIZE_PHYS);
 301              	 .loc 1 312 0
 302 004c 0020     	 movs r0,#0
 303 004e A021     	 movs r1,#160
 304 0050 8022     	 movs r2,#128
 305 0052 FFF7FEFF 	 bl LCD_SetVSizeEx
 313:../Dave/Generated/GUI_SEGGERLIBRARY/LCDConf.c ****   //
 314:../Dave/Generated/GUI_SEGGERLIBRARY/LCDConf.c ****   // Function selection, hardware routines (PortAPI) and operation mode (bus, bpp and cache)
 315:../Dave/Generated/GUI_SEGGERLIBRARY/LCDConf.c ****   //
 316:../Dave/Generated/GUI_SEGGERLIBRARY/LCDConf.c ****   #ifndef WIN32
 317:../Dave/Generated/GUI_SEGGERLIBRARY/LCDConf.c **** #if (!USER_DEFINED_LCD && SPI_INTERFACE == 1)
 318:../Dave/Generated/GUI_SEGGERLIBRARY/LCDConf.c **** 	#if (DISPLAY_8BPP == 1)
 319:../Dave/Generated/GUI_SEGGERLIBRARY/LCDConf.c **** 		PortAPI.pfWrite8_A0  = GUI_SEGGERLIBRARY_WriteCmdByte;
 306              	 .loc 1 319 0
 307 0056 104B     	 ldr r3,.L4+8
 308 0058 7B61     	 str r3,[r7,#20]
 320:../Dave/Generated/GUI_SEGGERLIBRARY/LCDConf.c **** 		PortAPI.pfWrite8_A1  = GUI_SEGGERLIBRARY_WriteDataByte;
 309              	 .loc 1 320 0
 310 005a 104B     	 ldr r3,.L4+12
 311 005c BB61     	 str r3,[r7,#24]
 321:../Dave/Generated/GUI_SEGGERLIBRARY/LCDConf.c **** 		PortAPI.pfWriteM8_A1 = GUI_SEGGERLIBRARY_WriteMultipleBytes;
 312              	 .loc 1 321 0
 313 005e 104B     	 ldr r3,.L4+16
 314 0060 3B62     	 str r3,[r7,#32]
 322:../Dave/Generated/GUI_SEGGERLIBRARY/LCDConf.c **** 		PortAPI.pfReadM8_A1  = GUI_SEGGERLIBRARY_ReadMultipleBytes;
 315              	 .loc 1 322 0
 316 0062 104B     	 ldr r3,.L4+20
 317 0064 3B63     	 str r3,[r7,#48]
 323:../Dave/Generated/GUI_SEGGERLIBRARY/LCDConf.c **** 	#endif
 324:../Dave/Generated/GUI_SEGGERLIBRARY/LCDConf.c **** #else
 325:../Dave/Generated/GUI_SEGGERLIBRARY/LCDConf.c **** #if (DISPLAY_8BPP == 1)
 326:../Dave/Generated/GUI_SEGGERLIBRARY/LCDConf.c **** 		PortAPI.pfWrite8_A0  = User_LCD_8_WriteCmd;
 327:../Dave/Generated/GUI_SEGGERLIBRARY/LCDConf.c **** 		PortAPI.pfWrite8_A1  = User_LCD_8_WriteData;
 328:../Dave/Generated/GUI_SEGGERLIBRARY/LCDConf.c **** 		PortAPI.pfWriteM8_A1 = User_LCD_8_WriteMultiple;
 329:../Dave/Generated/GUI_SEGGERLIBRARY/LCDConf.c **** 		PortAPI.pfReadM8_A1  = User_LCD_8_Read;
 330:../Dave/Generated/GUI_SEGGERLIBRARY/LCDConf.c **** #endif
 331:../Dave/Generated/GUI_SEGGERLIBRARY/LCDConf.c **** #if (DISPLAY_16BPP == 1)
 332:../Dave/Generated/GUI_SEGGERLIBRARY/LCDConf.c **** 		PortAPI.pfWrite16_A0  = User_LCD_16_WriteCmd;
 333:../Dave/Generated/GUI_SEGGERLIBRARY/LCDConf.c **** 		PortAPI.pfWrite16_A1  = User_LCD_16_WriteData;
 334:../Dave/Generated/GUI_SEGGERLIBRARY/LCDConf.c **** 		PortAPI.pfWriteM16_A1 = User_LCD_16_WriteMultiple;
 335:../Dave/Generated/GUI_SEGGERLIBRARY/LCDConf.c **** 		PortAPI.pfReadM16_A1  = User_LCD_16_Read;
 336:../Dave/Generated/GUI_SEGGERLIBRARY/LCDConf.c **** #endif
 337:../Dave/Generated/GUI_SEGGERLIBRARY/LCDConf.c **** #endif
 338:../Dave/Generated/GUI_SEGGERLIBRARY/LCDConf.c **** 
 339:../Dave/Generated/GUI_SEGGERLIBRARY/LCDConf.c **** 		GUIDRV_FlexColor_SetFunc(pDevice, &PortAPI, pfFUNC, pfMODE);
 318              	 .loc 1 339 0
 319 0066 07F11403 	 add r3,r7,#20
 320 006a F86F     	 ldr r0,[r7,#124]
 321 006c 1946     	 mov r1,r3
 322 006e 0E4A     	 ldr r2,.L4+24
 323 0070 0E4B     	 ldr r3,.L4+28
 324 0072 FFF7FEFF 	 bl GUIDRV_FlexColor_SetFunc
 340:../Dave/Generated/GUI_SEGGERLIBRARY/LCDConf.c **** 
 341:../Dave/Generated/GUI_SEGGERLIBRARY/LCDConf.c **** 	//
 342:../Dave/Generated/GUI_SEGGERLIBRARY/LCDConf.c ****     // Orientation
 343:../Dave/Generated/GUI_SEGGERLIBRARY/LCDConf.c ****     //
 344:../Dave/Generated/GUI_SEGGERLIBRARY/LCDConf.c ****     Config.Orientation  = DISPLAY_ORIENTATION;
 325              	 .loc 1 344 0
 326 0076 0023     	 movs r3,#0
 327 0078 BB60     	 str r3,[r7,#8]
 345:../Dave/Generated/GUI_SEGGERLIBRARY/LCDConf.c ****     Config.RegEntryMode = 0x60;
 328              	 .loc 1 345 0
 329 007a 6023     	 movs r3,#96
 330 007c BB81     	 strh r3,[r7,#12]
 346:../Dave/Generated/GUI_SEGGERLIBRARY/LCDConf.c ****     GUIDRV_FlexColor_Config(pDevice, &Config);
 331              	 .loc 1 346 0
 332 007e 3B46     	 mov r3,r7
 333 0080 F86F     	 ldr r0,[r7,#124]
 334 0082 1946     	 mov r1,r3
 335 0084 FFF7FEFF 	 bl GUIDRV_FlexColor_Config
 347:../Dave/Generated/GUI_SEGGERLIBRARY/LCDConf.c ****   #endif
 348:../Dave/Generated/GUI_SEGGERLIBRARY/LCDConf.c **** }
 336              	 .loc 1 348 0
 337 0088 8037     	 adds r7,r7,#128
 338              	.LCFI10:
 339              	 .cfi_def_cfa_offset 8
 340 008a BD46     	 mov sp,r7
 341              	.LCFI11:
 342              	 .cfi_def_cfa_register 13
 343              	 
 344 008c 80BD     	 pop {r7,pc}
 345              	.L5:
 346 008e 00BF     	 .align 2
 347              	.L4:
 348 0090 00000000 	 .word GUIDRV_FlexColor_API
 349 0094 00000000 	 .word LCD_API_ColorConv_M565
 350 0098 00000000 	 .word GUI_SEGGERLIBRARY_WriteCmdByte
 351 009c 00000000 	 .word GUI_SEGGERLIBRARY_WriteDataByte
 352 00a0 00000000 	 .word GUI_SEGGERLIBRARY_WriteMultipleBytes
 353 00a4 00000000 	 .word GUI_SEGGERLIBRARY_ReadMultipleBytes
 354 00a8 00000000 	 .word GUIDRV_FlexColor_SetFunc66718
 355 00ac 00000000 	 .word GUIDRV_FlexColor_SetMode16bppC0B8
 356              	 .cfi_endproc
 357              	.LFE310:
 359              	 .section .text.LCD_X_DisplayDriver,"ax",%progbits
 360              	 .align 2
 361              	 .global LCD_X_DisplayDriver
 362              	 .thumb
 363              	 .thumb_func
 365              	LCD_X_DisplayDriver:
 366              	.LFB311:
 349:../Dave/Generated/GUI_SEGGERLIBRARY/LCDConf.c **** 
 350:../Dave/Generated/GUI_SEGGERLIBRARY/LCDConf.c **** /*********************************************************************
 351:../Dave/Generated/GUI_SEGGERLIBRARY/LCDConf.c **** *
 352:../Dave/Generated/GUI_SEGGERLIBRARY/LCDConf.c **** *       LCD_X_DisplayDriver
 353:../Dave/Generated/GUI_SEGGERLIBRARY/LCDConf.c **** *
 354:../Dave/Generated/GUI_SEGGERLIBRARY/LCDConf.c **** * Purpose:
 355:../Dave/Generated/GUI_SEGGERLIBRARY/LCDConf.c **** *   This function is called by the display driver for several purposes.
 356:../Dave/Generated/GUI_SEGGERLIBRARY/LCDConf.c **** *   To support the according task the routine needs to be adapted to
 357:../Dave/Generated/GUI_SEGGERLIBRARY/LCDConf.c **** *   the display controller. Please note that the commands marked with
 358:../Dave/Generated/GUI_SEGGERLIBRARY/LCDConf.c **** *   'optional' are not cogently required and should only be adapted if 
 359:../Dave/Generated/GUI_SEGGERLIBRARY/LCDConf.c **** *   the display controller supports these features.
 360:../Dave/Generated/GUI_SEGGERLIBRARY/LCDConf.c **** *
 361:../Dave/Generated/GUI_SEGGERLIBRARY/LCDConf.c **** * Parameter:
 362:../Dave/Generated/GUI_SEGGERLIBRARY/LCDConf.c **** *   LayerIndex - Index of layer to be configured
 363:../Dave/Generated/GUI_SEGGERLIBRARY/LCDConf.c **** *   Cmd        - Please refer to the details in the switch statement below
 364:../Dave/Generated/GUI_SEGGERLIBRARY/LCDConf.c **** *   pData      - Pointer to a LCD_X_DATA structure
 365:../Dave/Generated/GUI_SEGGERLIBRARY/LCDConf.c **** */
 366:../Dave/Generated/GUI_SEGGERLIBRARY/LCDConf.c **** int LCD_X_DisplayDriver(unsigned LayerIndex, unsigned Cmd, void * pData) {
 367              	 .loc 1 366 0
 368              	 .cfi_startproc
 369              	 
 370              	 
 371 0000 80B5     	 push {r7,lr}
 372              	.LCFI12:
 373              	 .cfi_def_cfa_offset 8
 374              	 .cfi_offset 7,-8
 375              	 .cfi_offset 14,-4
 376 0002 86B0     	 sub sp,sp,#24
 377              	.LCFI13:
 378              	 .cfi_def_cfa_offset 32
 379 0004 00AF     	 add r7,sp,#0
 380              	.LCFI14:
 381              	 .cfi_def_cfa_register 7
 382 0006 F860     	 str r0,[r7,#12]
 383 0008 B960     	 str r1,[r7,#8]
 384 000a 7A60     	 str r2,[r7,#4]
 367:../Dave/Generated/GUI_SEGGERLIBRARY/LCDConf.c ****   int r;
 368:../Dave/Generated/GUI_SEGGERLIBRARY/LCDConf.c **** 
 369:../Dave/Generated/GUI_SEGGERLIBRARY/LCDConf.c ****   GUI_USE_PARA(LayerIndex);
 370:../Dave/Generated/GUI_SEGGERLIBRARY/LCDConf.c ****   GUI_USE_PARA(pData);
 371:../Dave/Generated/GUI_SEGGERLIBRARY/LCDConf.c ****   switch (Cmd) {
 385              	 .loc 1 371 0
 386 000c BB68     	 ldr r3,[r7,#8]
 387 000e 012B     	 cmp r3,#1
 388 0010 03D1     	 bne .L10
 372:../Dave/Generated/GUI_SEGGERLIBRARY/LCDConf.c ****   //
 373:../Dave/Generated/GUI_SEGGERLIBRARY/LCDConf.c ****   // Required
 374:../Dave/Generated/GUI_SEGGERLIBRARY/LCDConf.c ****   //
 375:../Dave/Generated/GUI_SEGGERLIBRARY/LCDConf.c ****   case LCD_X_INITCONTROLLER: {
 376:../Dave/Generated/GUI_SEGGERLIBRARY/LCDConf.c ****     //
 377:../Dave/Generated/GUI_SEGGERLIBRARY/LCDConf.c ****     // Called during the initialization process in order to set up the
 378:../Dave/Generated/GUI_SEGGERLIBRARY/LCDConf.c ****     // display controller and put it into operation. If the display
 379:../Dave/Generated/GUI_SEGGERLIBRARY/LCDConf.c ****     // controller is not initialized by any external routine this needs
 380:../Dave/Generated/GUI_SEGGERLIBRARY/LCDConf.c ****     // to be adapted by the customer...
 381:../Dave/Generated/GUI_SEGGERLIBRARY/LCDConf.c ****     //
 382:../Dave/Generated/GUI_SEGGERLIBRARY/LCDConf.c **** #if ((USER_DEFINED_LCD == 1) || (SPI_INTERFACE == 0))
 383:../Dave/Generated/GUI_SEGGERLIBRARY/LCDConf.c **** 	  User_LCD_Init();
 384:../Dave/Generated/GUI_SEGGERLIBRARY/LCDConf.c **** #else
 385:../Dave/Generated/GUI_SEGGERLIBRARY/LCDConf.c ****     OLED_SPI_InitController();
 389              	 .loc 1 385 0
 390 0012 FFF7FEFF 	 bl OLED_SPI_InitController
 386:../Dave/Generated/GUI_SEGGERLIBRARY/LCDConf.c **** #endif
 387:../Dave/Generated/GUI_SEGGERLIBRARY/LCDConf.c ****     return 0;
 391              	 .loc 1 387 0
 392 0016 0023     	 movs r3,#0
 393 0018 03E0     	 b .L9
 394              	.L10:
 388:../Dave/Generated/GUI_SEGGERLIBRARY/LCDConf.c ****   }
 389:../Dave/Generated/GUI_SEGGERLIBRARY/LCDConf.c ****   default:
 390:../Dave/Generated/GUI_SEGGERLIBRARY/LCDConf.c ****     r = -1;
 395              	 .loc 1 390 0
 396 001a 4FF0FF33 	 mov r3,#-1
 397 001e 7B61     	 str r3,[r7,#20]
 391:../Dave/Generated/GUI_SEGGERLIBRARY/LCDConf.c ****   }
 392:../Dave/Generated/GUI_SEGGERLIBRARY/LCDConf.c ****   return r;
 398              	 .loc 1 392 0
 399 0020 7B69     	 ldr r3,[r7,#20]
 400              	.L9:
 393:../Dave/Generated/GUI_SEGGERLIBRARY/LCDConf.c **** }
 401              	 .loc 1 393 0
 402 0022 1846     	 mov r0,r3
 403 0024 1837     	 adds r7,r7,#24
 404              	.LCFI15:
 405              	 .cfi_def_cfa_offset 8
 406 0026 BD46     	 mov sp,r7
 407              	.LCFI16:
 408              	 .cfi_def_cfa_register 13
 409              	 
 410 0028 80BD     	 pop {r7,pc}
 411              	 .cfi_endproc
 412              	.LFE311:
 414 002a 00BF     	 .text
 415              	.Letext0:
 416              	 .file 2 "c:\\dave_4-4-2_64bit_2018-02-23\\dave_4-4-2_64bit_2018-02-23\\dave-ide-4.4.2-64bit\\eclipse\\emwin\\start\\gui\\inc\\LCD.h"
 417              	 .file 3 "c:\\dave_4-4-2_64bit_2018-02-23\\dave_4-4-2_64bit_2018-02-23\\dave-ide-4.4.2-64bit\\eclipse\\emwin\\start\\gui\\inc\\gui.h"
 418              	 .file 4 "c:\\dave_4-4-2_64bit_2018-02-23\\dave_4-4-2_64bit_2018-02-23\\dave-ide-4.4.2-64bit\\eclipse\\emwin\\start\\gui\\inc\\GUI_Type.h"
 419              	 .file 5 "c:\\dave_4-4-2_64bit_2018-02-23\\dave_4-4-2_64bit_2018-02-23\\dave-ide-4.4.2-64bit\\eclipse\\arm-gcc-49\\arm-none-eabi\\include\\machine\\_default_types.h"
 420              	 .file 6 "c:\\dave_4-4-2_64bit_2018-02-23\\dave_4-4-2_64bit_2018-02-23\\dave-ide-4.4.2-64bit\\eclipse\\arm-gcc-49\\arm-none-eabi\\include\\stdint.h"
 421              	 .file 7 "c:\\dave_4-4-2_64bit_2018-02-23\\dave_4-4-2_64bit_2018-02-23\\dave-ide-4.4.2-64bit\\eclipse\\emwin\\start\\gui\\inc\\guidrv_flexcolor.h"
 422              	 .file 8 "C:/Users/RGoncalves/Documents/GitHub/uControllers/XMC_Relax_Kit_Projects/APPs_Implementation_Examples/xmc4200_platform2go/NewHavenDisplay/Libraries/CMSIS/Include/cmsis_gcc.h"
 423              	 .file 9 "C:/Users/RGoncalves/Documents/GitHub/uControllers/XMC_Relax_Kit_Projects/APPs_Implementation_Examples/xmc4200_platform2go/NewHavenDisplay/Libraries/CMSIS/Include/core_cm4.h"
 424              	 .file 10 "C:/Users/RGoncalves/Documents/GitHub/uControllers/XMC_Relax_Kit_Projects/APPs_Implementation_Examples/xmc4200_platform2go/NewHavenDisplay/Libraries/CMSIS/Infineon/XMC4200_series/Include/system_XMC4200.h"