   1              	 .syntax unified
   2              	 .cpu cortex-m4
   3              	 .eabi_attribute 27,3
   4              	 .fpu fpv4-sp-d16
   5              	 .eabi_attribute 20,1
   6              	 .eabi_attribute 21,1
   7              	 .eabi_attribute 23,3
   8              	 .eabi_attribute 24,1
   9              	 .eabi_attribute 25,1
  10              	 .eabi_attribute 26,1
  11              	 .eabi_attribute 30,6
  12              	 .eabi_attribute 34,1
  13              	 .eabi_attribute 18,4
  14              	 .thumb
  15              	 .file "xmc4_gpio.c"
  16              	 .text
  17              	.Ltext0:
  18              	 .cfi_sections .debug_frame
  19              	 .section .text.XMC_GPIO_Init,"ax",%progbits
  20              	 .align 2
  21              	 .global XMC_GPIO_Init
  22              	 .thumb
  23              	 .thumb_func
  25              	XMC_GPIO_Init:
  26              	.LFB143:
  27              	 .file 1 "../Libraries/XMCLib/src/xmc4_gpio.c"
   1:../Libraries/XMCLib/src/xmc4_gpio.c **** /**
   2:../Libraries/XMCLib/src/xmc4_gpio.c ****  * @file xmc4_gpio.c
   3:../Libraries/XMCLib/src/xmc4_gpio.c ****  * @date 2017-09-15
   4:../Libraries/XMCLib/src/xmc4_gpio.c ****  *
   5:../Libraries/XMCLib/src/xmc4_gpio.c ****  * @cond
   6:../Libraries/XMCLib/src/xmc4_gpio.c ****  *****************************************************************************
   7:../Libraries/XMCLib/src/xmc4_gpio.c ****  * XMClib v2.2.0 - XMC Peripheral Driver Library
   8:../Libraries/XMCLib/src/xmc4_gpio.c ****  *
   9:../Libraries/XMCLib/src/xmc4_gpio.c ****  * Copyright (c) 2015-2020, Infineon Technologies AG
  10:../Libraries/XMCLib/src/xmc4_gpio.c ****  * All rights reserved.
  11:../Libraries/XMCLib/src/xmc4_gpio.c ****  *
  12:../Libraries/XMCLib/src/xmc4_gpio.c ****  * Boost Software License - Version 1.0 - August 17th, 2003
  13:../Libraries/XMCLib/src/xmc4_gpio.c ****  *
  14:../Libraries/XMCLib/src/xmc4_gpio.c ****  * Permission is hereby granted, free of charge, to any person or organization
  15:../Libraries/XMCLib/src/xmc4_gpio.c ****  * obtaining a copy of the software and accompanying documentation covered by
  16:../Libraries/XMCLib/src/xmc4_gpio.c ****  * this license (the "Software") to use, reproduce, display, distribute,
  17:../Libraries/XMCLib/src/xmc4_gpio.c ****  * execute, and transmit the Software, and to prepare derivative works of the
  18:../Libraries/XMCLib/src/xmc4_gpio.c ****  * Software, and to permit third-parties to whom the Software is furnished to
  19:../Libraries/XMCLib/src/xmc4_gpio.c ****  * do so, all subject to the following:
  20:../Libraries/XMCLib/src/xmc4_gpio.c ****  *
  21:../Libraries/XMCLib/src/xmc4_gpio.c ****  * The copyright notices in the Software and this entire statement, including
  22:../Libraries/XMCLib/src/xmc4_gpio.c ****  * the above license grant, this restriction and the following disclaimer,
  23:../Libraries/XMCLib/src/xmc4_gpio.c ****  * must be included in all copies of the Software, in whole or in part, and
  24:../Libraries/XMCLib/src/xmc4_gpio.c ****  * all derivative works of the Software, unless such copies or derivative
  25:../Libraries/XMCLib/src/xmc4_gpio.c ****  * works are solely in the form of machine-executable object code generated by
  26:../Libraries/XMCLib/src/xmc4_gpio.c ****  * a source language processor.
  27:../Libraries/XMCLib/src/xmc4_gpio.c ****  *
  28:../Libraries/XMCLib/src/xmc4_gpio.c ****  * THE SOFTWARE IS PROVIDED "AS IS", WITHOUT WARRANTY OF ANY KIND, EXPRESS OR
  29:../Libraries/XMCLib/src/xmc4_gpio.c ****  * IMPLIED, INCLUDING BUT NOT LIMITED TO THE WARRANTIES OF MERCHANTABILITY,
  30:../Libraries/XMCLib/src/xmc4_gpio.c ****  * FITNESS FOR A PARTICULAR PURPOSE, TITLE AND NON-INFRINGEMENT. IN NO EVENT
  31:../Libraries/XMCLib/src/xmc4_gpio.c ****  * SHALL THE COPYRIGHT HOLDERS OR ANYONE DISTRIBUTING THE SOFTWARE BE LIABLE
  32:../Libraries/XMCLib/src/xmc4_gpio.c ****  * FOR ANY DAMAGES OR OTHER LIABILITY, WHETHER IN CONTRACT, TORT OR OTHERWISE,
  33:../Libraries/XMCLib/src/xmc4_gpio.c ****  * ARISING FROM, OUT OF OR IN CONNECTION WITH THE SOFTWARE OR THE USE OR OTHER
  34:../Libraries/XMCLib/src/xmc4_gpio.c ****  * DEALINGS IN THE SOFTWARE.
  35:../Libraries/XMCLib/src/xmc4_gpio.c ****  *
  36:../Libraries/XMCLib/src/xmc4_gpio.c ****  * To improve the quality of the software, users are encouraged to share
  37:../Libraries/XMCLib/src/xmc4_gpio.c ****  * modifications, enhancements or bug fixes with Infineon Technologies AG
  38:../Libraries/XMCLib/src/xmc4_gpio.c ****  * at XMCSupport@infineon.com.
  39:../Libraries/XMCLib/src/xmc4_gpio.c ****  *****************************************************************************
  40:../Libraries/XMCLib/src/xmc4_gpio.c ****  *
  41:../Libraries/XMCLib/src/xmc4_gpio.c ****  * Change History
  42:../Libraries/XMCLib/src/xmc4_gpio.c ****  * --------------
  43:../Libraries/XMCLib/src/xmc4_gpio.c ****  *
  44:../Libraries/XMCLib/src/xmc4_gpio.c ****  * 2015-02-20:
  45:../Libraries/XMCLib/src/xmc4_gpio.c ****  *     - Initial draft <br>
  46:../Libraries/XMCLib/src/xmc4_gpio.c ****  *
  47:../Libraries/XMCLib/src/xmc4_gpio.c ****  * 2015-06-20:
  48:../Libraries/XMCLib/src/xmc4_gpio.c ****  *     - Removed version macros and declaration of GetDriverVersion API
  49:../Libraries/XMCLib/src/xmc4_gpio.c ****  *
  50:../Libraries/XMCLib/src/xmc4_gpio.c ****  * 2017-09-15:
  51:../Libraries/XMCLib/src/xmc4_gpio.c ****  *     - Fix side effects on output level when programming a pin as input after the same pin in ano
  52:../Libraries/XMCLib/src/xmc4_gpio.c ****  *
  53:../Libraries/XMCLib/src/xmc4_gpio.c ****  * @endcond
  54:../Libraries/XMCLib/src/xmc4_gpio.c ****  *
  55:../Libraries/XMCLib/src/xmc4_gpio.c ****  */
  56:../Libraries/XMCLib/src/xmc4_gpio.c **** 
  57:../Libraries/XMCLib/src/xmc4_gpio.c **** #include "xmc_gpio.h"
  58:../Libraries/XMCLib/src/xmc4_gpio.c **** 
  59:../Libraries/XMCLib/src/xmc4_gpio.c **** #if UC_FAMILY == XMC4
  60:../Libraries/XMCLib/src/xmc4_gpio.c **** 
  61:../Libraries/XMCLib/src/xmc4_gpio.c **** /*******************************************************************************
  62:../Libraries/XMCLib/src/xmc4_gpio.c ****  * MACROS
  63:../Libraries/XMCLib/src/xmc4_gpio.c ****  *******************************************************************************/
  64:../Libraries/XMCLib/src/xmc4_gpio.c **** 
  65:../Libraries/XMCLib/src/xmc4_gpio.c **** #define PORT_PDR_Msk              PORT0_PDR0_PD0_Msk
  66:../Libraries/XMCLib/src/xmc4_gpio.c **** #define PORT_PDR_Size             (4U)
  67:../Libraries/XMCLib/src/xmc4_gpio.c **** #define PORT_HWSEL_Msk            PORT0_HWSEL_HW0_Msk
  68:../Libraries/XMCLib/src/xmc4_gpio.c **** #define XMC_GPIO_MODE_OE          XMC_GPIO_MODE_OUTPUT_PUSH_PULL
  69:../Libraries/XMCLib/src/xmc4_gpio.c **** 
  70:../Libraries/XMCLib/src/xmc4_gpio.c **** /*******************************************************************************
  71:../Libraries/XMCLib/src/xmc4_gpio.c ****  * API IMPLEMENTATION
  72:../Libraries/XMCLib/src/xmc4_gpio.c ****  *******************************************************************************/
  73:../Libraries/XMCLib/src/xmc4_gpio.c **** 
  74:../Libraries/XMCLib/src/xmc4_gpio.c **** void XMC_GPIO_Init(XMC_GPIO_PORT_t *const port, const uint8_t pin, const XMC_GPIO_CONFIG_t *const c
  75:../Libraries/XMCLib/src/xmc4_gpio.c **** {
  28              	 .loc 1 75 0
  29              	 .cfi_startproc
  30              	 
  31              	 
  32              	 
  33 0000 80B4     	 push {r7}
  34              	.LCFI0:
  35              	 .cfi_def_cfa_offset 4
  36              	 .cfi_offset 7,-4
  37 0002 85B0     	 sub sp,sp,#20
  38              	.LCFI1:
  39              	 .cfi_def_cfa_offset 24
  40 0004 00AF     	 add r7,sp,#0
  41              	.LCFI2:
  42              	 .cfi_def_cfa_register 7
  43 0006 F860     	 str r0,[r7,#12]
  44 0008 0B46     	 mov r3,r1
  45 000a 7A60     	 str r2,[r7,#4]
  46 000c FB72     	 strb r3,[r7,#11]
  76:../Libraries/XMCLib/src/xmc4_gpio.c ****   XMC_ASSERT("XMC_GPIO_Init: Invalid port", XMC_GPIO_CHECK_PORT(port));
  77:../Libraries/XMCLib/src/xmc4_gpio.c ****   XMC_ASSERT("XMC_GPIO_Init: Invalid mode", XMC_GPIO_IsModeValid(config->mode));
  78:../Libraries/XMCLib/src/xmc4_gpio.c **** 
  79:../Libraries/XMCLib/src/xmc4_gpio.c ****   /* Switch to input */
  80:../Libraries/XMCLib/src/xmc4_gpio.c ****   port->IOCR[pin >> 2U] &= (uint32_t)~(PORT_IOCR_PC_Msk << (PORT_IOCR_PC_Size * (pin & 0x3U)));
  47              	 .loc 1 80 0
  48 000e FB7A     	 ldrb r3,[r7,#11]
  49 0010 9B08     	 lsrs r3,r3,#2
  50 0012 DBB2     	 uxtb r3,r3
  51 0014 1846     	 mov r0,r3
  52 0016 FB7A     	 ldrb r3,[r7,#11]
  53 0018 9B08     	 lsrs r3,r3,#2
  54 001a DBB2     	 uxtb r3,r3
  55 001c 1A46     	 mov r2,r3
  56 001e FB68     	 ldr r3,[r7,#12]
  57 0020 0432     	 adds r2,r2,#4
  58 0022 53F82220 	 ldr r2,[r3,r2,lsl#2]
  59 0026 FB7A     	 ldrb r3,[r7,#11]
  60 0028 03F00303 	 and r3,r3,#3
  61 002c DB00     	 lsls r3,r3,#3
  62 002e 1946     	 mov r1,r3
  63 0030 F823     	 movs r3,#248
  64 0032 8B40     	 lsls r3,r3,r1
  65 0034 DB43     	 mvns r3,r3
  66 0036 02EA0301 	 and r1,r2,r3
  67 003a FB68     	 ldr r3,[r7,#12]
  68 003c 021D     	 adds r2,r0,#4
  69 003e 43F82210 	 str r1,[r3,r2,lsl#2]
  81:../Libraries/XMCLib/src/xmc4_gpio.c **** 
  82:../Libraries/XMCLib/src/xmc4_gpio.c ****   /* HW port control is disabled */
  83:../Libraries/XMCLib/src/xmc4_gpio.c ****   port->HWSEL &= ~(uint32_t)((uint32_t)PORT_HWSEL_Msk << ((uint32_t)pin << 1U));
  70              	 .loc 1 83 0
  71 0042 FB68     	 ldr r3,[r7,#12]
  72 0044 5A6F     	 ldr r2,[r3,#116]
  73 0046 FB7A     	 ldrb r3,[r7,#11]
  74 0048 5B00     	 lsls r3,r3,#1
  75 004a 1946     	 mov r1,r3
  76 004c 0323     	 movs r3,#3
  77 004e 8B40     	 lsls r3,r3,r1
  78 0050 DB43     	 mvns r3,r3
  79 0052 1A40     	 ands r2,r2,r3
  80 0054 FB68     	 ldr r3,[r7,#12]
  81 0056 5A67     	 str r2,[r3,#116]
  84:../Libraries/XMCLib/src/xmc4_gpio.c **** 
  85:../Libraries/XMCLib/src/xmc4_gpio.c **** 
  86:../Libraries/XMCLib/src/xmc4_gpio.c ****   /* Enable digital input */
  87:../Libraries/XMCLib/src/xmc4_gpio.c ****   if (XMC_GPIO_CHECK_ANALOG_PORT(port))
  82              	 .loc 1 87 0
  83 0058 FB68     	 ldr r3,[r7,#12]
  84 005a 384A     	 ldr r2,.L4
  85 005c 9342     	 cmp r3,r2
  86 005e 0AD1     	 bne .L2
  88:../Libraries/XMCLib/src/xmc4_gpio.c ****   {
  89:../Libraries/XMCLib/src/xmc4_gpio.c ****     port->PDISC &= ~(uint32_t)((uint32_t)0x1U << pin);
  87              	 .loc 1 89 0
  88 0060 FB68     	 ldr r3,[r7,#12]
  89 0062 1A6E     	 ldr r2,[r3,#96]
  90 0064 FB7A     	 ldrb r3,[r7,#11]
  91 0066 0121     	 movs r1,#1
  92 0068 01FA03F3 	 lsl r3,r1,r3
  93 006c DB43     	 mvns r3,r3
  94 006e 1A40     	 ands r2,r2,r3
  95 0070 FB68     	 ldr r3,[r7,#12]
  96 0072 1A66     	 str r2,[r3,#96]
  97 0074 42E0     	 b .L3
  98              	.L2:
  90:../Libraries/XMCLib/src/xmc4_gpio.c ****   }
  91:../Libraries/XMCLib/src/xmc4_gpio.c ****   else
  92:../Libraries/XMCLib/src/xmc4_gpio.c ****   {
  93:../Libraries/XMCLib/src/xmc4_gpio.c ****     if ((config->mode & XMC_GPIO_MODE_OE) != 0)
  99              	 .loc 1 93 0
 100 0076 7B68     	 ldr r3,[r7,#4]
 101 0078 1B78     	 ldrb r3,[r3]
 102 007a DBB2     	 uxtb r3,r3
 103 007c 5BB2     	 sxtb r3,r3
 104 007e 002B     	 cmp r3,#0
 105 0080 3CDA     	 bge .L3
  94:../Libraries/XMCLib/src/xmc4_gpio.c ****     {
  95:../Libraries/XMCLib/src/xmc4_gpio.c ****       /* If output is enabled */
  96:../Libraries/XMCLib/src/xmc4_gpio.c **** 
  97:../Libraries/XMCLib/src/xmc4_gpio.c ****       /* Set output level */
  98:../Libraries/XMCLib/src/xmc4_gpio.c ****       port->OMR = (uint32_t)config->output_level << pin;
 106              	 .loc 1 98 0
 107 0082 7B68     	 ldr r3,[r7,#4]
 108 0084 5A68     	 ldr r2,[r3,#4]
 109 0086 FB7A     	 ldrb r3,[r7,#11]
 110 0088 9A40     	 lsls r2,r2,r3
 111 008a FB68     	 ldr r3,[r7,#12]
 112 008c 5A60     	 str r2,[r3,#4]
  99:../Libraries/XMCLib/src/xmc4_gpio.c **** 
 100:../Libraries/XMCLib/src/xmc4_gpio.c ****       /* Set output driver strength */
 101:../Libraries/XMCLib/src/xmc4_gpio.c ****       port->PDR[pin >> 3U] &= (uint32_t)~(PORT_PDR_Msk << ((uint32_t)PORT_PDR_Size * ((uint32_t)pin
 113              	 .loc 1 101 0
 114 008e FB7A     	 ldrb r3,[r7,#11]
 115 0090 DB08     	 lsrs r3,r3,#3
 116 0092 DBB2     	 uxtb r3,r3
 117 0094 1846     	 mov r0,r3
 118 0096 FB7A     	 ldrb r3,[r7,#11]
 119 0098 DB08     	 lsrs r3,r3,#3
 120 009a DBB2     	 uxtb r3,r3
 121 009c 1A46     	 mov r2,r3
 122 009e FB68     	 ldr r3,[r7,#12]
 123 00a0 1032     	 adds r2,r2,#16
 124 00a2 53F82220 	 ldr r2,[r3,r2,lsl#2]
 125 00a6 FB7A     	 ldrb r3,[r7,#11]
 126 00a8 03F00703 	 and r3,r3,#7
 127 00ac 9B00     	 lsls r3,r3,#2
 128 00ae 1946     	 mov r1,r3
 129 00b0 0723     	 movs r3,#7
 130 00b2 8B40     	 lsls r3,r3,r1
 131 00b4 DB43     	 mvns r3,r3
 132 00b6 02EA0301 	 and r1,r2,r3
 133 00ba FB68     	 ldr r3,[r7,#12]
 134 00bc 00F11002 	 add r2,r0,#16
 135 00c0 43F82210 	 str r1,[r3,r2,lsl#2]
 102:../Libraries/XMCLib/src/xmc4_gpio.c ****       port->PDR[pin >> 3U] |= (uint32_t)config->output_strength << ((uint32_t)PORT_PDR_Size * ((uin
 136              	 .loc 1 102 0
 137 00c4 FB7A     	 ldrb r3,[r7,#11]
 138 00c6 DB08     	 lsrs r3,r3,#3
 139 00c8 DBB2     	 uxtb r3,r3
 140 00ca 1846     	 mov r0,r3
 141 00cc FB7A     	 ldrb r3,[r7,#11]
 142 00ce DB08     	 lsrs r3,r3,#3
 143 00d0 DBB2     	 uxtb r3,r3
 144 00d2 1A46     	 mov r2,r3
 145 00d4 FB68     	 ldr r3,[r7,#12]
 146 00d6 1032     	 adds r2,r2,#16
 147 00d8 53F82220 	 ldr r2,[r3,r2,lsl#2]
 148 00dc 7B68     	 ldr r3,[r7,#4]
 149 00de 1B7A     	 ldrb r3,[r3,#8]
 150 00e0 1946     	 mov r1,r3
 151 00e2 FB7A     	 ldrb r3,[r7,#11]
 152 00e4 03F00703 	 and r3,r3,#7
 153 00e8 9B00     	 lsls r3,r3,#2
 154 00ea 01FA03F3 	 lsl r3,r1,r3
 155 00ee 42EA0301 	 orr r1,r2,r3
 156 00f2 FB68     	 ldr r3,[r7,#12]
 157 00f4 00F11002 	 add r2,r0,#16
 158 00f8 43F82210 	 str r1,[r3,r2,lsl#2]
 159              	.L3:
 103:../Libraries/XMCLib/src/xmc4_gpio.c ****     }
 104:../Libraries/XMCLib/src/xmc4_gpio.c ****   }
 105:../Libraries/XMCLib/src/xmc4_gpio.c **** 
 106:../Libraries/XMCLib/src/xmc4_gpio.c ****   /* Set mode */
 107:../Libraries/XMCLib/src/xmc4_gpio.c ****   port->IOCR[pin >> 2U] |= (uint32_t)config->mode << ((uint32_t)PORT_IOCR_PC_Size * ((uint32_t)pin 
 160              	 .loc 1 107 0
 161 00fc FB7A     	 ldrb r3,[r7,#11]
 162 00fe 9B08     	 lsrs r3,r3,#2
 163 0100 DBB2     	 uxtb r3,r3
 164 0102 1846     	 mov r0,r3
 165 0104 FB7A     	 ldrb r3,[r7,#11]
 166 0106 9B08     	 lsrs r3,r3,#2
 167 0108 DBB2     	 uxtb r3,r3
 168 010a 1A46     	 mov r2,r3
 169 010c FB68     	 ldr r3,[r7,#12]
 170 010e 0432     	 adds r2,r2,#4
 171 0110 53F82220 	 ldr r2,[r3,r2,lsl#2]
 172 0114 7B68     	 ldr r3,[r7,#4]
 173 0116 1B78     	 ldrb r3,[r3]
 174 0118 1946     	 mov r1,r3
 175 011a FB7A     	 ldrb r3,[r7,#11]
 176 011c 03F00303 	 and r3,r3,#3
 177 0120 DB00     	 lsls r3,r3,#3
 178 0122 01FA03F3 	 lsl r3,r1,r3
 179 0126 42EA0301 	 orr r1,r2,r3
 180 012a FB68     	 ldr r3,[r7,#12]
 181 012c 021D     	 adds r2,r0,#4
 182 012e 43F82210 	 str r1,[r3,r2,lsl#2]
 108:../Libraries/XMCLib/src/xmc4_gpio.c **** }
 183              	 .loc 1 108 0
 184 0132 1437     	 adds r7,r7,#20
 185              	.LCFI3:
 186              	 .cfi_def_cfa_offset 4
 187 0134 BD46     	 mov sp,r7
 188              	.LCFI4:
 189              	 .cfi_def_cfa_register 13
 190              	 
 191 0136 5DF8047B 	 ldr r7,[sp],#4
 192              	.LCFI5:
 193              	 .cfi_restore 7
 194              	 .cfi_def_cfa_offset 0
 195 013a 7047     	 bx lr
 196              	.L5:
 197              	 .align 2
 198              	.L4:
 199 013c 008E0248 	 .word 1208126976
 200              	 .cfi_endproc
 201              	.LFE143:
 203              	 .section .text.XMC_GPIO_SetOutputStrength,"ax",%progbits
 204              	 .align 2
 205              	 .global XMC_GPIO_SetOutputStrength
 206              	 .thumb
 207              	 .thumb_func
 209              	XMC_GPIO_SetOutputStrength:
 210              	.LFB144:
 109:../Libraries/XMCLib/src/xmc4_gpio.c **** 
 110:../Libraries/XMCLib/src/xmc4_gpio.c **** void XMC_GPIO_SetOutputStrength(XMC_GPIO_PORT_t *const port, const uint8_t pin, XMC_GPIO_OUTPUT_STR
 111:../Libraries/XMCLib/src/xmc4_gpio.c **** {
 211              	 .loc 1 111 0
 212              	 .cfi_startproc
 213              	 
 214              	 
 215              	 
 216 0000 80B4     	 push {r7}
 217              	.LCFI6:
 218              	 .cfi_def_cfa_offset 4
 219              	 .cfi_offset 7,-4
 220 0002 83B0     	 sub sp,sp,#12
 221              	.LCFI7:
 222              	 .cfi_def_cfa_offset 16
 223 0004 00AF     	 add r7,sp,#0
 224              	.LCFI8:
 225              	 .cfi_def_cfa_register 7
 226 0006 7860     	 str r0,[r7,#4]
 227 0008 0B46     	 mov r3,r1
 228 000a FB70     	 strb r3,[r7,#3]
 229 000c 1346     	 mov r3,r2
 230 000e BB70     	 strb r3,[r7,#2]
 112:../Libraries/XMCLib/src/xmc4_gpio.c ****   XMC_ASSERT("XMC_GPIO_Init: Invalid port", XMC_GPIO_CHECK_OUTPUT_PORT(port));
 113:../Libraries/XMCLib/src/xmc4_gpio.c ****   XMC_ASSERT("XMC_GPIO_Init: Invalid output strength", XMC_GPIO_CHECK_OUTPUT_STRENGTH(strength));
 114:../Libraries/XMCLib/src/xmc4_gpio.c **** 
 115:../Libraries/XMCLib/src/xmc4_gpio.c ****   port->PDR[pin >> 3U] &= (uint32_t)~((uint32_t)PORT_PDR_Msk << ((uint32_t)PORT_PDR_Size * ((uint32
 231              	 .loc 1 115 0
 232 0010 FB78     	 ldrb r3,[r7,#3]
 233 0012 DB08     	 lsrs r3,r3,#3
 234 0014 DBB2     	 uxtb r3,r3
 235 0016 1846     	 mov r0,r3
 236 0018 FB78     	 ldrb r3,[r7,#3]
 237 001a DB08     	 lsrs r3,r3,#3
 238 001c DBB2     	 uxtb r3,r3
 239 001e 1A46     	 mov r2,r3
 240 0020 7B68     	 ldr r3,[r7,#4]
 241 0022 1032     	 adds r2,r2,#16
 242 0024 53F82220 	 ldr r2,[r3,r2,lsl#2]
 243 0028 FB78     	 ldrb r3,[r7,#3]
 244 002a 03F00703 	 and r3,r3,#7
 245 002e 9B00     	 lsls r3,r3,#2
 246 0030 1946     	 mov r1,r3
 247 0032 0723     	 movs r3,#7
 248 0034 8B40     	 lsls r3,r3,r1
 249 0036 DB43     	 mvns r3,r3
 250 0038 02EA0301 	 and r1,r2,r3
 251 003c 7B68     	 ldr r3,[r7,#4]
 252 003e 00F11002 	 add r2,r0,#16
 253 0042 43F82210 	 str r1,[r3,r2,lsl#2]
 116:../Libraries/XMCLib/src/xmc4_gpio.c ****   port->PDR[pin >> 3U] |= (uint32_t)strength << ((uint32_t)PORT_PDR_Size * ((uint32_t)pin & 0x7U));
 254              	 .loc 1 116 0
 255 0046 FB78     	 ldrb r3,[r7,#3]
 256 0048 DB08     	 lsrs r3,r3,#3
 257 004a DBB2     	 uxtb r3,r3
 258 004c 1846     	 mov r0,r3
 259 004e FB78     	 ldrb r3,[r7,#3]
 260 0050 DB08     	 lsrs r3,r3,#3
 261 0052 DBB2     	 uxtb r3,r3
 262 0054 1A46     	 mov r2,r3
 263 0056 7B68     	 ldr r3,[r7,#4]
 264 0058 1032     	 adds r2,r2,#16
 265 005a 53F82220 	 ldr r2,[r3,r2,lsl#2]
 266 005e BB78     	 ldrb r3,[r7,#2]
 267 0060 F978     	 ldrb r1,[r7,#3]
 268 0062 01F00701 	 and r1,r1,#7
 269 0066 8900     	 lsls r1,r1,#2
 270 0068 8B40     	 lsls r3,r3,r1
 271 006a 42EA0301 	 orr r1,r2,r3
 272 006e 7B68     	 ldr r3,[r7,#4]
 273 0070 00F11002 	 add r2,r0,#16
 274 0074 43F82210 	 str r1,[r3,r2,lsl#2]
 117:../Libraries/XMCLib/src/xmc4_gpio.c **** }
 275              	 .loc 1 117 0
 276 0078 0C37     	 adds r7,r7,#12
 277              	.LCFI9:
 278              	 .cfi_def_cfa_offset 4
 279 007a BD46     	 mov sp,r7
 280              	.LCFI10:
 281              	 .cfi_def_cfa_register 13
 282              	 
 283 007c 5DF8047B 	 ldr r7,[sp],#4
 284              	.LCFI11:
 285              	 .cfi_restore 7
 286              	 .cfi_def_cfa_offset 0
 287 0080 7047     	 bx lr
 288              	 .cfi_endproc
 289              	.LFE144:
 291 0082 00BF     	 .text
 292              	.Letext0:
 293              	 .file 2 "c:\\dave_4-4-2_64bit_2018-02-23\\dave_4-4-2_64bit_2018-02-23\\dave-ide-4.4.2-64bit\\eclipse\\arm-gcc-49\\arm-none-eabi\\include\\machine\\_default_types.h"
 294              	 .file 3 "c:\\dave_4-4-2_64bit_2018-02-23\\dave_4-4-2_64bit_2018-02-23\\dave-ide-4.4.2-64bit\\eclipse\\arm-gcc-49\\arm-none-eabi\\include\\stdint.h"
 295              	 .file 4 "C:/Users/RGoncalves/Documents/GitHub/uControllers/XMC_Relax_Kit_Projects/APPs_Implementation_Examples/xmc4200_platform2go/CAN_example/Libraries/XMCLib/inc/xmc_gpio.h"
 296              	 .file 5 "C:/Users/RGoncalves/Documents/GitHub/uControllers/XMC_Relax_Kit_Projects/APPs_Implementation_Examples/xmc4200_platform2go/CAN_example/Libraries/XMCLib/inc/xmc4_gpio.h"
 297              	 .file 6 "C:/Users/RGoncalves/Documents/GitHub/uControllers/XMC_Relax_Kit_Projects/APPs_Implementation_Examples/xmc4200_platform2go/CAN_example/Libraries/CMSIS/Include/cmsis_gcc.h"
 298              	 .file 7 "C:/Users/RGoncalves/Documents/GitHub/uControllers/XMC_Relax_Kit_Projects/APPs_Implementation_Examples/xmc4200_platform2go/CAN_example/Libraries/CMSIS/Include/core_cm4.h"