   1              	 .syntax unified
   2              	 .cpu cortex-m4
   3              	 .eabi_attribute 27,3
   4              	 .fpu fpv4-sp-d16
   5              	 .eabi_attribute 20,1
   6              	 .eabi_attribute 21,1
   7              	 .eabi_attribute 23,3
   8              	 .eabi_attribute 24,1
   9              	 .eabi_attribute 25,1
  10              	 .eabi_attribute 26,1
  11              	 .eabi_attribute 30,6
  12              	 .eabi_attribute 34,1
  13              	 .eabi_attribute 18,4
  14              	 .thumb
  15              	 .file "main.c"
  16              	 .text
  17              	.Ltext0:
  18              	 .cfi_sections .debug_frame
  19              	 .global s_tick
  20              	 .section .data.s_tick,"aw",%progbits
  21              	 .align 2
  24              	s_tick:
  25 0000 07000000 	 .word 7
  26              	 .global s_trigger
  27              	 .section .bss.s_trigger,"aw",%nobits
  30              	s_trigger:
  31 0000 00       	 .space 1
  32              	 .section .rodata
  33              	 .align 2
  34              	.LC0:
  35 0000 31307320 	 .ascii "10s TIMER\000"
  35      54494D45 
  35      5200
  36 000a 0000     	 .section .text.main,"ax",%progbits
  37              	 .align 2
  38              	 .global main
  39              	 .thumb
  40              	 .thumb_func
  42              	main:
  43              	.LFB360:
  44              	 .file 1 "../main.c"
   1:../main.c     **** #include <DAVE.h>                 //Declarations from DAVE Code Generation (includes SFR declaratio
   2:../main.c     **** 
   3:../main.c     **** 
   4:../main.c     **** void delay (unsigned int count);
   5:../main.c     **** uint32_t s_tick = 7;
   6:../main.c     **** uint8_t s_trigger = 0;
   7:../main.c     **** 
   8:../main.c     **** 
   9:../main.c     **** int main(void)
  10:../main.c     **** {
  45              	 .loc 1 10 0
  46              	 .cfi_startproc
  47              	 
  48              	 
  49 0000 80B5     	 push {r7,lr}
  50              	.LCFI0:
  51              	 .cfi_def_cfa_offset 8
  52              	 .cfi_offset 7,-8
  53              	 .cfi_offset 14,-4
  54 0002 82B0     	 sub sp,sp,#8
  55              	.LCFI1:
  56              	 .cfi_def_cfa_offset 16
  57 0004 00AF     	 add r7,sp,#0
  58              	.LCFI2:
  59              	 .cfi_def_cfa_register 7
  11:../main.c     ****   DAVE_STATUS_t status;
  12:../main.c     **** 
  13:../main.c     ****   status = DAVE_Init();           /* Initialization of DAVE APPs  */
  60              	 .loc 1 13 0
  61 0006 FFF7FEFF 	 bl DAVE_Init
  62 000a 0346     	 mov r3,r0
  63 000c FB71     	 strb r3,[r7,#7]
  14:../main.c     **** 
  15:../main.c     ****   if(status == DAVE_STATUS_FAILURE)
  64              	 .loc 1 15 0
  65 000e FB79     	 ldrb r3,[r7,#7]
  66 0010 012B     	 cmp r3,#1
  67 0012 00D1     	 bne .L2
  68              	.L3:
  16:../main.c     ****   {
  17:../main.c     ****     /* Placeholder for error handler code. The while loop below can be replaced with an user error 
  18:../main.c     ****     XMC_DEBUG("DAVE APPs initialization failed\n");
  19:../main.c     **** 
  20:../main.c     ****     while(1U)
  21:../main.c     ****     {
  22:../main.c     **** 
  23:../main.c     ****     }
  69              	 .loc 1 23 0 discriminator 1
  70 0014 FEE7     	 b .L3
  71              	.L2:
  24:../main.c     ****   }
  25:../main.c     **** 
  26:../main.c     ****   /* Set background colour */
  27:../main.c     ****   //GUI_SetBkColor(GUI_BLUE);
  28:../main.c     ****   /* Clear screen */
  29:../main.c     ****   GUI_Clear();
  72              	 .loc 1 29 0
  73 0016 FFF7FEFF 	 bl GUI_Clear
  30:../main.c     **** 
  31:../main.c     ****   /* Display text */
  32:../main.c     ****   GUI_SetFont(&GUI_Font20B_1);
  74              	 .loc 1 32 0
  75 001a 0E48     	 ldr r0,.L6
  76 001c FFF7FEFF 	 bl GUI_SetFont
  33:../main.c     ****   GUI_SetColor(GUI_WHITE);
  77              	 .loc 1 33 0
  78 0020 6FF07F40 	 mvn r0,#-16777216
  79 0024 FFF7FEFF 	 bl GUI_SetColor
  34:../main.c     ****   GUI_DispStringHCenterAt("10s TIMER", 80, 30);
  80              	 .loc 1 34 0
  81 0028 0B48     	 ldr r0,.L6+4
  82 002a 5021     	 movs r1,#80
  83 002c 1E22     	 movs r2,#30
  84 002e FFF7FEFF 	 bl GUI_DispStringHCenterAt
  85              	.L5:
  35:../main.c     **** 
  36:../main.c     **** 
  37:../main.c     ****   while(1U)
  38:../main.c     ****   {
  39:../main.c     **** 	  if(s_trigger){
  86              	 .loc 1 39 0
  87 0032 0A4B     	 ldr r3,.L6+8
  88 0034 1B78     	 ldrb r3,[r3]
  89 0036 002B     	 cmp r3,#0
  90 0038 0BD0     	 beq .L4
  40:../main.c     **** 		  /* Display text */
  41:../main.c     **** 		  GUI_SetColor(GUI_WHITE);
  91              	 .loc 1 41 0
  92 003a 6FF07F40 	 mvn r0,#-16777216
  93 003e FFF7FEFF 	 bl GUI_SetColor
  42:../main.c     **** 		  GUI_DispDecAt(s_tick, 80, 60, 1);
  94              	 .loc 1 42 0
  95 0042 074B     	 ldr r3,.L6+12
  96 0044 1B68     	 ldr r3,[r3]
  97 0046 1846     	 mov r0,r3
  98 0048 5021     	 movs r1,#80
  99 004a 3C22     	 movs r2,#60
 100 004c 0123     	 movs r3,#1
 101 004e FFF7FEFF 	 bl GUI_DispDecAt
 102              	.L4:
  43:../main.c     **** 	  }
  44:../main.c     ****   }
 103              	 .loc 1 44 0
 104 0052 EEE7     	 b .L5
 105              	.L7:
 106              	 .align 2
 107              	.L6:
 108 0054 00000000 	 .word GUI_Font20B_1
 109 0058 00000000 	 .word .LC0
 110 005c 00000000 	 .word s_trigger
 111 0060 00000000 	 .word s_tick
 112              	 .cfi_endproc
 113              	.LFE360:
 115              	 .section .text.CCU41_1_IRQHandler,"ax",%progbits
 116              	 .align 2
 117              	 .global CCU41_1_IRQHandler
 118              	 .thumb
 119              	 .thumb_func
 121              	CCU41_1_IRQHandler:
 122              	.LFB361:
  45:../main.c     **** }
  46:../main.c     **** 
  47:../main.c     **** void tick(){
 123              	 .loc 1 47 0
 124              	 .cfi_startproc
 125              	 
 126              	 
 127              	 
 128 0000 80B4     	 push {r7}
 129              	.LCFI3:
 130              	 .cfi_def_cfa_offset 4
 131              	 .cfi_offset 7,-4
 132 0002 00AF     	 add r7,sp,#0
 133              	.LCFI4:
 134              	 .cfi_def_cfa_register 7
  48:../main.c     **** 	s_tick = s_tick + 1;
 135              	 .loc 1 48 0
 136 0004 094B     	 ldr r3,.L10
 137 0006 1B68     	 ldr r3,[r3]
 138 0008 0133     	 adds r3,r3,#1
 139 000a 084A     	 ldr r2,.L10
 140 000c 1360     	 str r3,[r2]
  49:../main.c     **** 
  50:../main.c     **** 	if(s_tick == 10){
 141              	 .loc 1 50 0
 142 000e 074B     	 ldr r3,.L10
 143 0010 1B68     	 ldr r3,[r3]
 144 0012 0A2B     	 cmp r3,#10
 145 0014 02D1     	 bne .L9
  51:../main.c     **** 		s_tick = 0;
 146              	 .loc 1 51 0
 147 0016 054B     	 ldr r3,.L10
 148 0018 0022     	 movs r2,#0
 149 001a 1A60     	 str r2,[r3]
 150              	.L9:
  52:../main.c     **** 	}
  53:../main.c     **** 	s_trigger = 1;
 151              	 .loc 1 53 0
 152 001c 044B     	 ldr r3,.L10+4
 153 001e 0122     	 movs r2,#1
 154 0020 1A70     	 strb r2,[r3]
  54:../main.c     **** 
  55:../main.c     **** }
 155              	 .loc 1 55 0
 156 0022 BD46     	 mov sp,r7
 157              	.LCFI5:
 158              	 .cfi_def_cfa_register 13
 159              	 
 160 0024 5DF8047B 	 ldr r7,[sp],#4
 161              	.LCFI6:
 162              	 .cfi_restore 7
 163              	 .cfi_def_cfa_offset 0
 164 0028 7047     	 bx lr
 165              	.L11:
 166 002a 00BF     	 .align 2
 167              	.L10:
 168 002c 00000000 	 .word s_tick
 169 0030 00000000 	 .word s_trigger
 170              	 .cfi_endproc
 171              	.LFE361:
 173              	 .section .text.delay,"ax",%progbits
 174              	 .align 2
 175              	 .global delay
 176              	 .thumb
 177              	 .thumb_func
 179              	delay:
 180              	.LFB362:
  56:../main.c     **** /**
  57:../main.c     ****  * @brief Delay function:This routine is used for creating delay
  58:../main.c     ****  * @param[in] count (value = n sec X 12 X 1000000)
  59:../main.c     ****  * @return None
  60:../main.c     ****  */
  61:../main.c     **** void delay (volatile unsigned int count)
  62:../main.c     **** {
 181              	 .loc 1 62 0
 182              	 .cfi_startproc
 183              	 
 184              	 
 185              	 
 186 0000 80B4     	 push {r7}
 187              	.LCFI7:
 188              	 .cfi_def_cfa_offset 4
 189              	 .cfi_offset 7,-4
 190 0002 83B0     	 sub sp,sp,#12
 191              	.LCFI8:
 192              	 .cfi_def_cfa_offset 16
 193 0004 00AF     	 add r7,sp,#0
 194              	.LCFI9:
 195              	 .cfi_def_cfa_register 7
 196 0006 7860     	 str r0,[r7,#4]
  63:../main.c     **** 	while (count != 0)
 197              	 .loc 1 63 0
 198 0008 02E0     	 b .L13
 199              	.L14:
  64:../main.c     **** 	{
  65:../main.c     **** 		count--;
 200              	 .loc 1 65 0
 201 000a 7B68     	 ldr r3,[r7,#4]
 202 000c 013B     	 subs r3,r3,#1
 203 000e 7B60     	 str r3,[r7,#4]
 204              	.L13:
  63:../main.c     **** 	while (count != 0)
 205              	 .loc 1 63 0
 206 0010 7B68     	 ldr r3,[r7,#4]
 207 0012 002B     	 cmp r3,#0
 208 0014 F9D1     	 bne .L14
  66:../main.c     **** 	}
  67:../main.c     **** }
 209              	 .loc 1 67 0
 210 0016 0C37     	 adds r7,r7,#12
 211              	.LCFI10:
 212              	 .cfi_def_cfa_offset 4
 213 0018 BD46     	 mov sp,r7
 214              	.LCFI11:
 215              	 .cfi_def_cfa_register 13
 216              	 
 217 001a 5DF8047B 	 ldr r7,[sp],#4
 218              	.LCFI12:
 219              	 .cfi_restore 7
 220              	 .cfi_def_cfa_offset 0
 221 001e 7047     	 bx lr
 222              	 .cfi_endproc
 223              	.LFE362:
 225              	 .text
 226              	.Letext0:
 227              	 .file 2 "c:\\dave_4-4-2_64bit_2018-02-23\\dave_4-4-2_64bit_2018-02-23\\dave-ide-4.4.2-64bit\\eclipse\\arm-gcc-49\\arm-none-eabi\\include\\machine\\_default_types.h"
 228              	 .file 3 "c:\\dave_4-4-2_64bit_2018-02-23\\dave_4-4-2_64bit_2018-02-23\\dave-ide-4.4.2-64bit\\eclipse\\arm-gcc-49\\arm-none-eabi\\include\\stdint.h"
 229              	 .file 4 "C:/Users/RGoncalves/Documents/GitHub/uControllers/XMC_Relax_Kit_Projects/APPs_Implementation_Examples/xmc4200_platform2go/NewHavenDisplay/Libraries/XMCLib/inc/xmc_usic.h"
 230              	 .file 5 "C:/Users/RGoncalves/Documents/GitHub/uControllers/XMC_Relax_Kit_Projects/APPs_Implementation_Examples/xmc4200_platform2go/NewHavenDisplay/Libraries/XMCLib/inc/xmc_spi.h"
 231              	 .file 6 "c:\\dave_4-4-2_64bit_2018-02-23\\dave_4-4-2_64bit_2018-02-23\\dave-ide-4.4.2-64bit\\eclipse\\emwin\\start\\gui\\inc\\GUI_Type.h"
 232              	 .file 7 "C:/Users/RGoncalves/Documents/GitHub/uControllers/XMC_Relax_Kit_Projects/APPs_Implementation_Examples/xmc4200_platform2go/NewHavenDisplay/Dave/Generated/DAVE.h"
 233              	 .file 8 "C:/Users/RGoncalves/Documents/GitHub/uControllers/XMC_Relax_Kit_Projects/APPs_Implementation_Examples/xmc4200_platform2go/NewHavenDisplay/Libraries/CMSIS/Include/cmsis_gcc.h"
 234              	 .file 9 "C:/Users/RGoncalves/Documents/GitHub/uControllers/XMC_Relax_Kit_Projects/APPs_Implementation_Examples/xmc4200_platform2go/NewHavenDisplay/Libraries/CMSIS/Include/core_cm4.h"
 235              	 .file 10 "C:/Users/RGoncalves/Documents/GitHub/uControllers/XMC_Relax_Kit_Projects/APPs_Implementation_Examples/xmc4200_platform2go/NewHavenDisplay/Libraries/CMSIS/Infineon/XMC4200_series/Include/system_XMC4200.h"
 236              	 .file 11 "c:\\dave_4-4-2_64bit_2018-02-23\\dave_4-4-2_64bit_2018-02-23\\dave-ide-4.4.2-64bit\\eclipse\\emwin\\start\\gui\\inc\\gui.h"