   1              	 .syntax unified
   2              	 .cpu cortex-m4
   3              	 .eabi_attribute 27,3
   4              	 .fpu fpv4-sp-d16
   5              	 .eabi_attribute 20,1
   6              	 .eabi_attribute 21,1
   7              	 .eabi_attribute 23,3
   8              	 .eabi_attribute 24,1
   9              	 .eabi_attribute 25,1
  10              	 .eabi_attribute 26,1
  11              	 .eabi_attribute 30,6
  12              	 .eabi_attribute 34,1
  13              	 .eabi_attribute 18,4
  14              	 .thumb
  15              	 .file "display_functions.c"
  16              	 .text
  17              	.Ltext0:
  18              	 .cfi_sections .debug_frame
  19              	 .section .text.XMC_GPIO_SetOutputHigh,"ax",%progbits
  20              	 .align 2
  21              	 .thumb
  22              	 .thumb_func
  24              	XMC_GPIO_SetOutputHigh:
  25              	.LFB177:
  26              	 .file 1 "C:/Users/RGoncalves/Documents/GitHub/uControllers/XMC_Relax_Kit_Projects/NewHaven_Display/NewHaven_Display/Libraries/XMCLib/inc/xmc_gpio.h"
   1:C:/Users/RGoncalves/Documents/GitHub/uControllers/XMC_Relax_Kit_Projects/NewHaven_Display/NewHaven_Display/Libraries/XMCLib/inc\xmc_gpio.h **** /**
   2:C:/Users/RGoncalves/Documents/GitHub/uControllers/XMC_Relax_Kit_Projects/NewHaven_Display/NewHaven_Display/Libraries/XMCLib/inc\xmc_gpio.h ****  * @file xmc_gpio.h
   3:C:/Users/RGoncalves/Documents/GitHub/uControllers/XMC_Relax_Kit_Projects/NewHaven_Display/NewHaven_Display/Libraries/XMCLib/inc\xmc_gpio.h ****  * @date 2015-06-20
   4:C:/Users/RGoncalves/Documents/GitHub/uControllers/XMC_Relax_Kit_Projects/NewHaven_Display/NewHaven_Display/Libraries/XMCLib/inc\xmc_gpio.h ****  *
   5:C:/Users/RGoncalves/Documents/GitHub/uControllers/XMC_Relax_Kit_Projects/NewHaven_Display/NewHaven_Display/Libraries/XMCLib/inc\xmc_gpio.h ****  * @cond
   6:C:/Users/RGoncalves/Documents/GitHub/uControllers/XMC_Relax_Kit_Projects/NewHaven_Display/NewHaven_Display/Libraries/XMCLib/inc\xmc_gpio.h ****  **************************************************************************************************
   7:C:/Users/RGoncalves/Documents/GitHub/uControllers/XMC_Relax_Kit_Projects/NewHaven_Display/NewHaven_Display/Libraries/XMCLib/inc\xmc_gpio.h ****  * XMClib v2.1.24 - XMC Peripheral Driver Library 
   8:C:/Users/RGoncalves/Documents/GitHub/uControllers/XMC_Relax_Kit_Projects/NewHaven_Display/NewHaven_Display/Libraries/XMCLib/inc\xmc_gpio.h ****  *
   9:C:/Users/RGoncalves/Documents/GitHub/uControllers/XMC_Relax_Kit_Projects/NewHaven_Display/NewHaven_Display/Libraries/XMCLib/inc\xmc_gpio.h ****  * Copyright (c) 2015-2019, Infineon Technologies AG
  10:C:/Users/RGoncalves/Documents/GitHub/uControllers/XMC_Relax_Kit_Projects/NewHaven_Display/NewHaven_Display/Libraries/XMCLib/inc\xmc_gpio.h ****  * All rights reserved.                        
  11:C:/Users/RGoncalves/Documents/GitHub/uControllers/XMC_Relax_Kit_Projects/NewHaven_Display/NewHaven_Display/Libraries/XMCLib/inc\xmc_gpio.h ****  *                                             
  12:C:/Users/RGoncalves/Documents/GitHub/uControllers/XMC_Relax_Kit_Projects/NewHaven_Display/NewHaven_Display/Libraries/XMCLib/inc\xmc_gpio.h ****  * Redistribution and use in source and binary forms, with or without modification,are permitted pr
  13:C:/Users/RGoncalves/Documents/GitHub/uControllers/XMC_Relax_Kit_Projects/NewHaven_Display/NewHaven_Display/Libraries/XMCLib/inc\xmc_gpio.h ****  * following conditions are met:   
  14:C:/Users/RGoncalves/Documents/GitHub/uControllers/XMC_Relax_Kit_Projects/NewHaven_Display/NewHaven_Display/Libraries/XMCLib/inc\xmc_gpio.h ****  *                                                                              
  15:C:/Users/RGoncalves/Documents/GitHub/uControllers/XMC_Relax_Kit_Projects/NewHaven_Display/NewHaven_Display/Libraries/XMCLib/inc\xmc_gpio.h ****  * Redistributions of source code must retain the above copyright notice, this list of conditions a
  16:C:/Users/RGoncalves/Documents/GitHub/uControllers/XMC_Relax_Kit_Projects/NewHaven_Display/NewHaven_Display/Libraries/XMCLib/inc\xmc_gpio.h ****  * disclaimer.                        
  17:C:/Users/RGoncalves/Documents/GitHub/uControllers/XMC_Relax_Kit_Projects/NewHaven_Display/NewHaven_Display/Libraries/XMCLib/inc\xmc_gpio.h ****  * 
  18:C:/Users/RGoncalves/Documents/GitHub/uControllers/XMC_Relax_Kit_Projects/NewHaven_Display/NewHaven_Display/Libraries/XMCLib/inc\xmc_gpio.h ****  * Redistributions in binary form must reproduce the above copyright notice, this list of condition
  19:C:/Users/RGoncalves/Documents/GitHub/uControllers/XMC_Relax_Kit_Projects/NewHaven_Display/NewHaven_Display/Libraries/XMCLib/inc\xmc_gpio.h ****  * disclaimer in the documentation and/or other materials provided with the distribution.          
  20:C:/Users/RGoncalves/Documents/GitHub/uControllers/XMC_Relax_Kit_Projects/NewHaven_Display/NewHaven_Display/Libraries/XMCLib/inc\xmc_gpio.h ****  * 
  21:C:/Users/RGoncalves/Documents/GitHub/uControllers/XMC_Relax_Kit_Projects/NewHaven_Display/NewHaven_Display/Libraries/XMCLib/inc\xmc_gpio.h ****  * Neither the name of the copyright holders nor the names of its contributors may be used to endor
  22:C:/Users/RGoncalves/Documents/GitHub/uControllers/XMC_Relax_Kit_Projects/NewHaven_Display/NewHaven_Display/Libraries/XMCLib/inc\xmc_gpio.h ****  * products derived from this software without specific prior written permission.                  
  23:C:/Users/RGoncalves/Documents/GitHub/uControllers/XMC_Relax_Kit_Projects/NewHaven_Display/NewHaven_Display/Libraries/XMCLib/inc\xmc_gpio.h ****  *                                                                              
  24:C:/Users/RGoncalves/Documents/GitHub/uControllers/XMC_Relax_Kit_Projects/NewHaven_Display/NewHaven_Display/Libraries/XMCLib/inc\xmc_gpio.h ****  * THIS SOFTWARE IS PROVIDED BY THE COPYRIGHT HOLDERS AND CONTRIBUTORS "AS IS" AND ANY EXPRESS OR I
  25:C:/Users/RGoncalves/Documents/GitHub/uControllers/XMC_Relax_Kit_Projects/NewHaven_Display/NewHaven_Display/Libraries/XMCLib/inc\xmc_gpio.h ****  * INCLUDING, BUT NOT LIMITED TO, THE IMPLIED WARRANTIES OF MERCHANTABILITY AND FITNESS FOR A PARTI
  26:C:/Users/RGoncalves/Documents/GitHub/uControllers/XMC_Relax_Kit_Projects/NewHaven_Display/NewHaven_Display/Libraries/XMCLib/inc\xmc_gpio.h ****  * DISCLAIMED. IN NO EVENT SHALL THE COPYRIGHT HOLDER OR CONTRIBUTORS BE LIABLE  FOR ANY DIRECT, IN
  27:C:/Users/RGoncalves/Documents/GitHub/uControllers/XMC_Relax_Kit_Projects/NewHaven_Display/NewHaven_Display/Libraries/XMCLib/inc\xmc_gpio.h ****  * SPECIAL, EXEMPLARY, OR CONSEQUENTIAL DAMAGES (INCLUDING, BUT NOT LIMITED TO, PROCUREMENT OF SUBS
  28:C:/Users/RGoncalves/Documents/GitHub/uControllers/XMC_Relax_Kit_Projects/NewHaven_Display/NewHaven_Display/Libraries/XMCLib/inc\xmc_gpio.h ****  * SERVICES; LOSS OF USE, DATA, OR PROFITS; OR BUSINESS INTERRUPTION) HOWEVER CAUSED AND ON ANY THE
  29:C:/Users/RGoncalves/Documents/GitHub/uControllers/XMC_Relax_Kit_Projects/NewHaven_Display/NewHaven_Display/Libraries/XMCLib/inc\xmc_gpio.h ****  * WHETHER IN CONTRACT, STRICT LIABILITY,OR TORT (INCLUDING NEGLIGENCE OR OTHERWISE) ARISING IN ANY
  30:C:/Users/RGoncalves/Documents/GitHub/uControllers/XMC_Relax_Kit_Projects/NewHaven_Display/NewHaven_Display/Libraries/XMCLib/inc\xmc_gpio.h ****  * OF THIS SOFTWARE, EVEN IF ADVISED OF THE POSSIBILITY OF SUCH DAMAGE.                            
  31:C:/Users/RGoncalves/Documents/GitHub/uControllers/XMC_Relax_Kit_Projects/NewHaven_Display/NewHaven_Display/Libraries/XMCLib/inc\xmc_gpio.h ****  *                                                                              
  32:C:/Users/RGoncalves/Documents/GitHub/uControllers/XMC_Relax_Kit_Projects/NewHaven_Display/NewHaven_Display/Libraries/XMCLib/inc\xmc_gpio.h ****  * To improve the quality of the software, users are encouraged to share modifications, enhancement
  33:C:/Users/RGoncalves/Documents/GitHub/uControllers/XMC_Relax_Kit_Projects/NewHaven_Display/NewHaven_Display/Libraries/XMCLib/inc\xmc_gpio.h ****  * Infineon Technologies AG dave@infineon.com).                                                    
  34:C:/Users/RGoncalves/Documents/GitHub/uControllers/XMC_Relax_Kit_Projects/NewHaven_Display/NewHaven_Display/Libraries/XMCLib/inc\xmc_gpio.h ****  **************************************************************************************************
  35:C:/Users/RGoncalves/Documents/GitHub/uControllers/XMC_Relax_Kit_Projects/NewHaven_Display/NewHaven_Display/Libraries/XMCLib/inc\xmc_gpio.h ****  *
  36:C:/Users/RGoncalves/Documents/GitHub/uControllers/XMC_Relax_Kit_Projects/NewHaven_Display/NewHaven_Display/Libraries/XMCLib/inc\xmc_gpio.h ****  * Change History
  37:C:/Users/RGoncalves/Documents/GitHub/uControllers/XMC_Relax_Kit_Projects/NewHaven_Display/NewHaven_Display/Libraries/XMCLib/inc\xmc_gpio.h ****  * --------------
  38:C:/Users/RGoncalves/Documents/GitHub/uControllers/XMC_Relax_Kit_Projects/NewHaven_Display/NewHaven_Display/Libraries/XMCLib/inc\xmc_gpio.h ****  *
  39:C:/Users/RGoncalves/Documents/GitHub/uControllers/XMC_Relax_Kit_Projects/NewHaven_Display/NewHaven_Display/Libraries/XMCLib/inc\xmc_gpio.h ****  * 2015-02-20:
  40:C:/Users/RGoncalves/Documents/GitHub/uControllers/XMC_Relax_Kit_Projects/NewHaven_Display/NewHaven_Display/Libraries/XMCLib/inc\xmc_gpio.h ****  *     - Initial draft<br>
  41:C:/Users/RGoncalves/Documents/GitHub/uControllers/XMC_Relax_Kit_Projects/NewHaven_Display/NewHaven_Display/Libraries/XMCLib/inc\xmc_gpio.h ****  *     - Documentation improved <br>
  42:C:/Users/RGoncalves/Documents/GitHub/uControllers/XMC_Relax_Kit_Projects/NewHaven_Display/NewHaven_Display/Libraries/XMCLib/inc\xmc_gpio.h ****  *      
  43:C:/Users/RGoncalves/Documents/GitHub/uControllers/XMC_Relax_Kit_Projects/NewHaven_Display/NewHaven_Display/Libraries/XMCLib/inc\xmc_gpio.h ****  * 2015-06-20:
  44:C:/Users/RGoncalves/Documents/GitHub/uControllers/XMC_Relax_Kit_Projects/NewHaven_Display/NewHaven_Display/Libraries/XMCLib/inc\xmc_gpio.h ****  *     - Removed version macros and declaration of GetDriverVersion API
  45:C:/Users/RGoncalves/Documents/GitHub/uControllers/XMC_Relax_Kit_Projects/NewHaven_Display/NewHaven_Display/Libraries/XMCLib/inc\xmc_gpio.h ****  *
  46:C:/Users/RGoncalves/Documents/GitHub/uControllers/XMC_Relax_Kit_Projects/NewHaven_Display/NewHaven_Display/Libraries/XMCLib/inc\xmc_gpio.h ****  * @endcond
  47:C:/Users/RGoncalves/Documents/GitHub/uControllers/XMC_Relax_Kit_Projects/NewHaven_Display/NewHaven_Display/Libraries/XMCLib/inc\xmc_gpio.h ****  *
  48:C:/Users/RGoncalves/Documents/GitHub/uControllers/XMC_Relax_Kit_Projects/NewHaven_Display/NewHaven_Display/Libraries/XMCLib/inc\xmc_gpio.h ****  */
  49:C:/Users/RGoncalves/Documents/GitHub/uControllers/XMC_Relax_Kit_Projects/NewHaven_Display/NewHaven_Display/Libraries/XMCLib/inc\xmc_gpio.h **** 
  50:C:/Users/RGoncalves/Documents/GitHub/uControllers/XMC_Relax_Kit_Projects/NewHaven_Display/NewHaven_Display/Libraries/XMCLib/inc\xmc_gpio.h **** #ifndef XMC_GPIO_H
  51:C:/Users/RGoncalves/Documents/GitHub/uControllers/XMC_Relax_Kit_Projects/NewHaven_Display/NewHaven_Display/Libraries/XMCLib/inc\xmc_gpio.h **** #define XMC_GPIO_H
  52:C:/Users/RGoncalves/Documents/GitHub/uControllers/XMC_Relax_Kit_Projects/NewHaven_Display/NewHaven_Display/Libraries/XMCLib/inc\xmc_gpio.h **** 
  53:C:/Users/RGoncalves/Documents/GitHub/uControllers/XMC_Relax_Kit_Projects/NewHaven_Display/NewHaven_Display/Libraries/XMCLib/inc\xmc_gpio.h **** /**************************************************************************************************
  54:C:/Users/RGoncalves/Documents/GitHub/uControllers/XMC_Relax_Kit_Projects/NewHaven_Display/NewHaven_Display/Libraries/XMCLib/inc\xmc_gpio.h ****  * HEADER FILES
  55:C:/Users/RGoncalves/Documents/GitHub/uControllers/XMC_Relax_Kit_Projects/NewHaven_Display/NewHaven_Display/Libraries/XMCLib/inc\xmc_gpio.h ****  **************************************************************************************************
  56:C:/Users/RGoncalves/Documents/GitHub/uControllers/XMC_Relax_Kit_Projects/NewHaven_Display/NewHaven_Display/Libraries/XMCLib/inc\xmc_gpio.h **** 
  57:C:/Users/RGoncalves/Documents/GitHub/uControllers/XMC_Relax_Kit_Projects/NewHaven_Display/NewHaven_Display/Libraries/XMCLib/inc\xmc_gpio.h **** #include "xmc_common.h"
  58:C:/Users/RGoncalves/Documents/GitHub/uControllers/XMC_Relax_Kit_Projects/NewHaven_Display/NewHaven_Display/Libraries/XMCLib/inc\xmc_gpio.h **** 
  59:C:/Users/RGoncalves/Documents/GitHub/uControllers/XMC_Relax_Kit_Projects/NewHaven_Display/NewHaven_Display/Libraries/XMCLib/inc\xmc_gpio.h **** /**
  60:C:/Users/RGoncalves/Documents/GitHub/uControllers/XMC_Relax_Kit_Projects/NewHaven_Display/NewHaven_Display/Libraries/XMCLib/inc\xmc_gpio.h ****  * @addtogroup XMClib XMC Peripheral Library
  61:C:/Users/RGoncalves/Documents/GitHub/uControllers/XMC_Relax_Kit_Projects/NewHaven_Display/NewHaven_Display/Libraries/XMCLib/inc\xmc_gpio.h ****  * @{
  62:C:/Users/RGoncalves/Documents/GitHub/uControllers/XMC_Relax_Kit_Projects/NewHaven_Display/NewHaven_Display/Libraries/XMCLib/inc\xmc_gpio.h ****  */
  63:C:/Users/RGoncalves/Documents/GitHub/uControllers/XMC_Relax_Kit_Projects/NewHaven_Display/NewHaven_Display/Libraries/XMCLib/inc\xmc_gpio.h **** 
  64:C:/Users/RGoncalves/Documents/GitHub/uControllers/XMC_Relax_Kit_Projects/NewHaven_Display/NewHaven_Display/Libraries/XMCLib/inc\xmc_gpio.h **** /**
  65:C:/Users/RGoncalves/Documents/GitHub/uControllers/XMC_Relax_Kit_Projects/NewHaven_Display/NewHaven_Display/Libraries/XMCLib/inc\xmc_gpio.h ****  * @addtogroup GPIO
  66:C:/Users/RGoncalves/Documents/GitHub/uControllers/XMC_Relax_Kit_Projects/NewHaven_Display/NewHaven_Display/Libraries/XMCLib/inc\xmc_gpio.h ****  * @brief General Purpose Input Output (GPIO) driver for the XMC microcontroller family.
  67:C:/Users/RGoncalves/Documents/GitHub/uControllers/XMC_Relax_Kit_Projects/NewHaven_Display/NewHaven_Display/Libraries/XMCLib/inc\xmc_gpio.h ****  *
  68:C:/Users/RGoncalves/Documents/GitHub/uControllers/XMC_Relax_Kit_Projects/NewHaven_Display/NewHaven_Display/Libraries/XMCLib/inc\xmc_gpio.h ****  * GPIO driver provide a generic and very flexible software interface for all standard digital I/O 
  69:C:/Users/RGoncalves/Documents/GitHub/uControllers/XMC_Relax_Kit_Projects/NewHaven_Display/NewHaven_Display/Libraries/XMCLib/inc\xmc_gpio.h ****  * Each port slice has individual interfaces for the operation as General Purpose I/O and it furthe
  70:C:/Users/RGoncalves/Documents/GitHub/uControllers/XMC_Relax_Kit_Projects/NewHaven_Display/NewHaven_Display/Libraries/XMCLib/inc\xmc_gpio.h ****  * connectivity to the on-chip periphery and the control for the pad characteristics. 
  71:C:/Users/RGoncalves/Documents/GitHub/uControllers/XMC_Relax_Kit_Projects/NewHaven_Display/NewHaven_Display/Libraries/XMCLib/inc\xmc_gpio.h ****  *
  72:C:/Users/RGoncalves/Documents/GitHub/uControllers/XMC_Relax_Kit_Projects/NewHaven_Display/NewHaven_Display/Libraries/XMCLib/inc\xmc_gpio.h ****  * The driver is divided into Input and Output mode.
  73:C:/Users/RGoncalves/Documents/GitHub/uControllers/XMC_Relax_Kit_Projects/NewHaven_Display/NewHaven_Display/Libraries/XMCLib/inc\xmc_gpio.h ****  *
  74:C:/Users/RGoncalves/Documents/GitHub/uControllers/XMC_Relax_Kit_Projects/NewHaven_Display/NewHaven_Display/Libraries/XMCLib/inc\xmc_gpio.h ****  * Input mode features:
  75:C:/Users/RGoncalves/Documents/GitHub/uControllers/XMC_Relax_Kit_Projects/NewHaven_Display/NewHaven_Display/Libraries/XMCLib/inc\xmc_gpio.h ****  * -# Configuration structure XMC_GPIO_CONFIG_t and initialization function XMC_GPIO_Init()
  76:C:/Users/RGoncalves/Documents/GitHub/uControllers/XMC_Relax_Kit_Projects/NewHaven_Display/NewHaven_Display/Libraries/XMCLib/inc\xmc_gpio.h ****  * -# Allows the selection of weak pull-up or pull-down device. Configuration structure XMC_GPIO_MO
  77:C:/Users/RGoncalves/Documents/GitHub/uControllers/XMC_Relax_Kit_Projects/NewHaven_Display/NewHaven_Display/Libraries/XMCLib/inc\xmc_gpio.h ****  * \if XMC1
  78:C:/Users/RGoncalves/Documents/GitHub/uControllers/XMC_Relax_Kit_Projects/NewHaven_Display/NewHaven_Display/Libraries/XMCLib/inc\xmc_gpio.h ****  * -# Allows the selection of input hysteresis. XMC_GPIO_SetInputHysteresis()
  79:C:/Users/RGoncalves/Documents/GitHub/uControllers/XMC_Relax_Kit_Projects/NewHaven_Display/NewHaven_Display/Libraries/XMCLib/inc\xmc_gpio.h ****  * \endif
  80:C:/Users/RGoncalves/Documents/GitHub/uControllers/XMC_Relax_Kit_Projects/NewHaven_Display/NewHaven_Display/Libraries/XMCLib/inc\xmc_gpio.h ****  *
  81:C:/Users/RGoncalves/Documents/GitHub/uControllers/XMC_Relax_Kit_Projects/NewHaven_Display/NewHaven_Display/Libraries/XMCLib/inc\xmc_gpio.h ****  * 
  82:C:/Users/RGoncalves/Documents/GitHub/uControllers/XMC_Relax_Kit_Projects/NewHaven_Display/NewHaven_Display/Libraries/XMCLib/inc\xmc_gpio.h ****  * Output mode features:
  83:C:/Users/RGoncalves/Documents/GitHub/uControllers/XMC_Relax_Kit_Projects/NewHaven_Display/NewHaven_Display/Libraries/XMCLib/inc\xmc_gpio.h ****  * -# Allows the selection of push pull/open drain and Alternate output. Configuration structure XM
  84:C:/Users/RGoncalves/Documents/GitHub/uControllers/XMC_Relax_Kit_Projects/NewHaven_Display/NewHaven_Display/Libraries/XMCLib/inc\xmc_gpio.h ****  * \if XMC4
  85:C:/Users/RGoncalves/Documents/GitHub/uControllers/XMC_Relax_Kit_Projects/NewHaven_Display/NewHaven_Display/Libraries/XMCLib/inc\xmc_gpio.h ****  * -# Allows the selection of pad driver strength. Configuration structure XMC_GPIO_OUTPUT_STRENGTH
  86:C:/Users/RGoncalves/Documents/GitHub/uControllers/XMC_Relax_Kit_Projects/NewHaven_Display/NewHaven_Display/Libraries/XMCLib/inc\xmc_gpio.h ****  * \endif
  87:C:/Users/RGoncalves/Documents/GitHub/uControllers/XMC_Relax_Kit_Projects/NewHaven_Display/NewHaven_Display/Libraries/XMCLib/inc\xmc_gpio.h ****  *
  88:C:/Users/RGoncalves/Documents/GitHub/uControllers/XMC_Relax_Kit_Projects/NewHaven_Display/NewHaven_Display/Libraries/XMCLib/inc\xmc_gpio.h ****  * -# Allows the selection of initial output level. Configuration structure XMC_GPIO_OUTPUT_LEVEL_t
  89:C:/Users/RGoncalves/Documents/GitHub/uControllers/XMC_Relax_Kit_Projects/NewHaven_Display/NewHaven_Display/Libraries/XMCLib/inc\xmc_gpio.h ****  *
  90:C:/Users/RGoncalves/Documents/GitHub/uControllers/XMC_Relax_Kit_Projects/NewHaven_Display/NewHaven_Display/Libraries/XMCLib/inc\xmc_gpio.h ****  *@{
  91:C:/Users/RGoncalves/Documents/GitHub/uControllers/XMC_Relax_Kit_Projects/NewHaven_Display/NewHaven_Display/Libraries/XMCLib/inc\xmc_gpio.h ****  */
  92:C:/Users/RGoncalves/Documents/GitHub/uControllers/XMC_Relax_Kit_Projects/NewHaven_Display/NewHaven_Display/Libraries/XMCLib/inc\xmc_gpio.h ****  
  93:C:/Users/RGoncalves/Documents/GitHub/uControllers/XMC_Relax_Kit_Projects/NewHaven_Display/NewHaven_Display/Libraries/XMCLib/inc\xmc_gpio.h **** /**************************************************************************************************
  94:C:/Users/RGoncalves/Documents/GitHub/uControllers/XMC_Relax_Kit_Projects/NewHaven_Display/NewHaven_Display/Libraries/XMCLib/inc\xmc_gpio.h ****  * MACROS
  95:C:/Users/RGoncalves/Documents/GitHub/uControllers/XMC_Relax_Kit_Projects/NewHaven_Display/NewHaven_Display/Libraries/XMCLib/inc\xmc_gpio.h ****  **************************************************************************************************
  96:C:/Users/RGoncalves/Documents/GitHub/uControllers/XMC_Relax_Kit_Projects/NewHaven_Display/NewHaven_Display/Libraries/XMCLib/inc\xmc_gpio.h **** 
  97:C:/Users/RGoncalves/Documents/GitHub/uControllers/XMC_Relax_Kit_Projects/NewHaven_Display/NewHaven_Display/Libraries/XMCLib/inc\xmc_gpio.h **** #define PORT_IOCR_PC_Pos PORT0_IOCR0_PC0_Pos
  98:C:/Users/RGoncalves/Documents/GitHub/uControllers/XMC_Relax_Kit_Projects/NewHaven_Display/NewHaven_Display/Libraries/XMCLib/inc\xmc_gpio.h **** #define PORT_IOCR_PC_Msk PORT0_IOCR0_PC0_Msk
  99:C:/Users/RGoncalves/Documents/GitHub/uControllers/XMC_Relax_Kit_Projects/NewHaven_Display/NewHaven_Display/Libraries/XMCLib/inc\xmc_gpio.h **** 
 100:C:/Users/RGoncalves/Documents/GitHub/uControllers/XMC_Relax_Kit_Projects/NewHaven_Display/NewHaven_Display/Libraries/XMCLib/inc\xmc_gpio.h **** #define PORT_IOCR_PC_Size 				(8U)
 101:C:/Users/RGoncalves/Documents/GitHub/uControllers/XMC_Relax_Kit_Projects/NewHaven_Display/NewHaven_Display/Libraries/XMCLib/inc\xmc_gpio.h **** 											
 102:C:/Users/RGoncalves/Documents/GitHub/uControllers/XMC_Relax_Kit_Projects/NewHaven_Display/NewHaven_Display/Libraries/XMCLib/inc\xmc_gpio.h **** 
 103:C:/Users/RGoncalves/Documents/GitHub/uControllers/XMC_Relax_Kit_Projects/NewHaven_Display/NewHaven_Display/Libraries/XMCLib/inc\xmc_gpio.h **** #define XMC_GPIO_CHECK_OUTPUT_LEVEL(level) ((level == XMC_GPIO_OUTPUT_LEVEL_LOW) || \
 104:C:/Users/RGoncalves/Documents/GitHub/uControllers/XMC_Relax_Kit_Projects/NewHaven_Display/NewHaven_Display/Libraries/XMCLib/inc\xmc_gpio.h ****                                             (level == XMC_GPIO_OUTPUT_LEVEL_HIGH))
 105:C:/Users/RGoncalves/Documents/GitHub/uControllers/XMC_Relax_Kit_Projects/NewHaven_Display/NewHaven_Display/Libraries/XMCLib/inc\xmc_gpio.h ****                                             
 106:C:/Users/RGoncalves/Documents/GitHub/uControllers/XMC_Relax_Kit_Projects/NewHaven_Display/NewHaven_Display/Libraries/XMCLib/inc\xmc_gpio.h **** #define XMC_GPIO_CHECK_HWCTRL(hwctrl) ((hwctrl == XMC_GPIO_HWCTRL_DISABLED) || \
 107:C:/Users/RGoncalves/Documents/GitHub/uControllers/XMC_Relax_Kit_Projects/NewHaven_Display/NewHaven_Display/Libraries/XMCLib/inc\xmc_gpio.h ****                                        (hwctrl == XMC_GPIO_HWCTRL_PERIPHERAL1) || \
 108:C:/Users/RGoncalves/Documents/GitHub/uControllers/XMC_Relax_Kit_Projects/NewHaven_Display/NewHaven_Display/Libraries/XMCLib/inc\xmc_gpio.h ****                                        (hwctrl == XMC_GPIO_HWCTRL_PERIPHERAL2))                    
 109:C:/Users/RGoncalves/Documents/GitHub/uControllers/XMC_Relax_Kit_Projects/NewHaven_Display/NewHaven_Display/Libraries/XMCLib/inc\xmc_gpio.h ****                                             
 110:C:/Users/RGoncalves/Documents/GitHub/uControllers/XMC_Relax_Kit_Projects/NewHaven_Display/NewHaven_Display/Libraries/XMCLib/inc\xmc_gpio.h **** /**************************************************************************************************
 111:C:/Users/RGoncalves/Documents/GitHub/uControllers/XMC_Relax_Kit_Projects/NewHaven_Display/NewHaven_Display/Libraries/XMCLib/inc\xmc_gpio.h ****  * ENUMS
 112:C:/Users/RGoncalves/Documents/GitHub/uControllers/XMC_Relax_Kit_Projects/NewHaven_Display/NewHaven_Display/Libraries/XMCLib/inc\xmc_gpio.h ****  **************************************************************************************************
 113:C:/Users/RGoncalves/Documents/GitHub/uControllers/XMC_Relax_Kit_Projects/NewHaven_Display/NewHaven_Display/Libraries/XMCLib/inc\xmc_gpio.h **** 
 114:C:/Users/RGoncalves/Documents/GitHub/uControllers/XMC_Relax_Kit_Projects/NewHaven_Display/NewHaven_Display/Libraries/XMCLib/inc\xmc_gpio.h **** 
 115:C:/Users/RGoncalves/Documents/GitHub/uControllers/XMC_Relax_Kit_Projects/NewHaven_Display/NewHaven_Display/Libraries/XMCLib/inc\xmc_gpio.h **** /**
 116:C:/Users/RGoncalves/Documents/GitHub/uControllers/XMC_Relax_Kit_Projects/NewHaven_Display/NewHaven_Display/Libraries/XMCLib/inc\xmc_gpio.h ****  * Defines output level of a pin. Use type \a XMC_GPIO_OUTPUT_LEVEL_t for this enum.
 117:C:/Users/RGoncalves/Documents/GitHub/uControllers/XMC_Relax_Kit_Projects/NewHaven_Display/NewHaven_Display/Libraries/XMCLib/inc\xmc_gpio.h ****  */
 118:C:/Users/RGoncalves/Documents/GitHub/uControllers/XMC_Relax_Kit_Projects/NewHaven_Display/NewHaven_Display/Libraries/XMCLib/inc\xmc_gpio.h **** typedef enum XMC_GPIO_OUTPUT_LEVEL
 119:C:/Users/RGoncalves/Documents/GitHub/uControllers/XMC_Relax_Kit_Projects/NewHaven_Display/NewHaven_Display/Libraries/XMCLib/inc\xmc_gpio.h **** {
 120:C:/Users/RGoncalves/Documents/GitHub/uControllers/XMC_Relax_Kit_Projects/NewHaven_Display/NewHaven_Display/Libraries/XMCLib/inc\xmc_gpio.h ****   XMC_GPIO_OUTPUT_LEVEL_LOW  = 0x10000U, /**<  Reset bit */
 121:C:/Users/RGoncalves/Documents/GitHub/uControllers/XMC_Relax_Kit_Projects/NewHaven_Display/NewHaven_Display/Libraries/XMCLib/inc\xmc_gpio.h ****   XMC_GPIO_OUTPUT_LEVEL_HIGH = 0x1U, 	/**< Set bit  */
 122:C:/Users/RGoncalves/Documents/GitHub/uControllers/XMC_Relax_Kit_Projects/NewHaven_Display/NewHaven_Display/Libraries/XMCLib/inc\xmc_gpio.h **** } XMC_GPIO_OUTPUT_LEVEL_t;
 123:C:/Users/RGoncalves/Documents/GitHub/uControllers/XMC_Relax_Kit_Projects/NewHaven_Display/NewHaven_Display/Libraries/XMCLib/inc\xmc_gpio.h **** 
 124:C:/Users/RGoncalves/Documents/GitHub/uControllers/XMC_Relax_Kit_Projects/NewHaven_Display/NewHaven_Display/Libraries/XMCLib/inc\xmc_gpio.h **** /**
 125:C:/Users/RGoncalves/Documents/GitHub/uControllers/XMC_Relax_Kit_Projects/NewHaven_Display/NewHaven_Display/Libraries/XMCLib/inc\xmc_gpio.h ****  * Defines direct hardware control characteristics of the pin . Use type \a XMC_GPIO_HWCTRL_t for t
 126:C:/Users/RGoncalves/Documents/GitHub/uControllers/XMC_Relax_Kit_Projects/NewHaven_Display/NewHaven_Display/Libraries/XMCLib/inc\xmc_gpio.h ****  */
 127:C:/Users/RGoncalves/Documents/GitHub/uControllers/XMC_Relax_Kit_Projects/NewHaven_Display/NewHaven_Display/Libraries/XMCLib/inc\xmc_gpio.h **** typedef enum XMC_GPIO_HWCTRL
 128:C:/Users/RGoncalves/Documents/GitHub/uControllers/XMC_Relax_Kit_Projects/NewHaven_Display/NewHaven_Display/Libraries/XMCLib/inc\xmc_gpio.h **** {
 129:C:/Users/RGoncalves/Documents/GitHub/uControllers/XMC_Relax_Kit_Projects/NewHaven_Display/NewHaven_Display/Libraries/XMCLib/inc\xmc_gpio.h ****   XMC_GPIO_HWCTRL_DISABLED     = 0x0U, /**<  Software control only */
 130:C:/Users/RGoncalves/Documents/GitHub/uControllers/XMC_Relax_Kit_Projects/NewHaven_Display/NewHaven_Display/Libraries/XMCLib/inc\xmc_gpio.h ****   XMC_GPIO_HWCTRL_PERIPHERAL1  = 0x1U, /**<  HWI0/HWO0 control path can override the software confi
 131:C:/Users/RGoncalves/Documents/GitHub/uControllers/XMC_Relax_Kit_Projects/NewHaven_Display/NewHaven_Display/Libraries/XMCLib/inc\xmc_gpio.h ****   XMC_GPIO_HWCTRL_PERIPHERAL2  = 0x2U  /**<  HWI1/HWO1 control path can override the software confi
 132:C:/Users/RGoncalves/Documents/GitHub/uControllers/XMC_Relax_Kit_Projects/NewHaven_Display/NewHaven_Display/Libraries/XMCLib/inc\xmc_gpio.h **** } XMC_GPIO_HWCTRL_t;
 133:C:/Users/RGoncalves/Documents/GitHub/uControllers/XMC_Relax_Kit_Projects/NewHaven_Display/NewHaven_Display/Libraries/XMCLib/inc\xmc_gpio.h **** 
 134:C:/Users/RGoncalves/Documents/GitHub/uControllers/XMC_Relax_Kit_Projects/NewHaven_Display/NewHaven_Display/Libraries/XMCLib/inc\xmc_gpio.h **** /**************************************************************************************************
 135:C:/Users/RGoncalves/Documents/GitHub/uControllers/XMC_Relax_Kit_Projects/NewHaven_Display/NewHaven_Display/Libraries/XMCLib/inc\xmc_gpio.h ****  * DEVICE FAMILY EXTENSIONS
 136:C:/Users/RGoncalves/Documents/GitHub/uControllers/XMC_Relax_Kit_Projects/NewHaven_Display/NewHaven_Display/Libraries/XMCLib/inc\xmc_gpio.h ****  **************************************************************************************************
 137:C:/Users/RGoncalves/Documents/GitHub/uControllers/XMC_Relax_Kit_Projects/NewHaven_Display/NewHaven_Display/Libraries/XMCLib/inc\xmc_gpio.h **** 
 138:C:/Users/RGoncalves/Documents/GitHub/uControllers/XMC_Relax_Kit_Projects/NewHaven_Display/NewHaven_Display/Libraries/XMCLib/inc\xmc_gpio.h ****  #if UC_FAMILY == XMC1
 139:C:/Users/RGoncalves/Documents/GitHub/uControllers/XMC_Relax_Kit_Projects/NewHaven_Display/NewHaven_Display/Libraries/XMCLib/inc\xmc_gpio.h **** #include "xmc1_gpio.h"
 140:C:/Users/RGoncalves/Documents/GitHub/uControllers/XMC_Relax_Kit_Projects/NewHaven_Display/NewHaven_Display/Libraries/XMCLib/inc\xmc_gpio.h **** #elif UC_FAMILY == XMC4
 141:C:/Users/RGoncalves/Documents/GitHub/uControllers/XMC_Relax_Kit_Projects/NewHaven_Display/NewHaven_Display/Libraries/XMCLib/inc\xmc_gpio.h **** #include "xmc4_gpio.h"
 142:C:/Users/RGoncalves/Documents/GitHub/uControllers/XMC_Relax_Kit_Projects/NewHaven_Display/NewHaven_Display/Libraries/XMCLib/inc\xmc_gpio.h **** #else
 143:C:/Users/RGoncalves/Documents/GitHub/uControllers/XMC_Relax_Kit_Projects/NewHaven_Display/NewHaven_Display/Libraries/XMCLib/inc\xmc_gpio.h **** #error "xmc_gpio.h: family device not supported"
 144:C:/Users/RGoncalves/Documents/GitHub/uControllers/XMC_Relax_Kit_Projects/NewHaven_Display/NewHaven_Display/Libraries/XMCLib/inc\xmc_gpio.h **** #endif
 145:C:/Users/RGoncalves/Documents/GitHub/uControllers/XMC_Relax_Kit_Projects/NewHaven_Display/NewHaven_Display/Libraries/XMCLib/inc\xmc_gpio.h **** 
 146:C:/Users/RGoncalves/Documents/GitHub/uControllers/XMC_Relax_Kit_Projects/NewHaven_Display/NewHaven_Display/Libraries/XMCLib/inc\xmc_gpio.h **** /**************************************************************************************************
 147:C:/Users/RGoncalves/Documents/GitHub/uControllers/XMC_Relax_Kit_Projects/NewHaven_Display/NewHaven_Display/Libraries/XMCLib/inc\xmc_gpio.h ****  * API PROTOTYPES
 148:C:/Users/RGoncalves/Documents/GitHub/uControllers/XMC_Relax_Kit_Projects/NewHaven_Display/NewHaven_Display/Libraries/XMCLib/inc\xmc_gpio.h ****  **************************************************************************************************
 149:C:/Users/RGoncalves/Documents/GitHub/uControllers/XMC_Relax_Kit_Projects/NewHaven_Display/NewHaven_Display/Libraries/XMCLib/inc\xmc_gpio.h **** 
 150:C:/Users/RGoncalves/Documents/GitHub/uControllers/XMC_Relax_Kit_Projects/NewHaven_Display/NewHaven_Display/Libraries/XMCLib/inc\xmc_gpio.h **** #ifdef __cplusplus
 151:C:/Users/RGoncalves/Documents/GitHub/uControllers/XMC_Relax_Kit_Projects/NewHaven_Display/NewHaven_Display/Libraries/XMCLib/inc\xmc_gpio.h **** extern "C" {
 152:C:/Users/RGoncalves/Documents/GitHub/uControllers/XMC_Relax_Kit_Projects/NewHaven_Display/NewHaven_Display/Libraries/XMCLib/inc\xmc_gpio.h **** #endif
 153:C:/Users/RGoncalves/Documents/GitHub/uControllers/XMC_Relax_Kit_Projects/NewHaven_Display/NewHaven_Display/Libraries/XMCLib/inc\xmc_gpio.h **** 
 154:C:/Users/RGoncalves/Documents/GitHub/uControllers/XMC_Relax_Kit_Projects/NewHaven_Display/NewHaven_Display/Libraries/XMCLib/inc\xmc_gpio.h **** 
 155:C:/Users/RGoncalves/Documents/GitHub/uControllers/XMC_Relax_Kit_Projects/NewHaven_Display/NewHaven_Display/Libraries/XMCLib/inc\xmc_gpio.h **** /**
 156:C:/Users/RGoncalves/Documents/GitHub/uControllers/XMC_Relax_Kit_Projects/NewHaven_Display/NewHaven_Display/Libraries/XMCLib/inc\xmc_gpio.h ****  * @param  port	  Constant pointer pointing to GPIO port, to access port registers like Pn_OUT,Pn_O
 157:C:/Users/RGoncalves/Documents/GitHub/uControllers/XMC_Relax_Kit_Projects/NewHaven_Display/NewHaven_Display/Libraries/XMCLib/inc\xmc_gpio.h ****  * @param  pin	  Port pin number.
 158:C:/Users/RGoncalves/Documents/GitHub/uControllers/XMC_Relax_Kit_Projects/NewHaven_Display/NewHaven_Display/Libraries/XMCLib/inc\xmc_gpio.h ****  * @param  config GPIO configuration data structure. Refer data structure @ref XMC_GPIO_CONFIG_t fo
 159:C:/Users/RGoncalves/Documents/GitHub/uControllers/XMC_Relax_Kit_Projects/NewHaven_Display/NewHaven_Display/Libraries/XMCLib/inc\xmc_gpio.h ****  *
 160:C:/Users/RGoncalves/Documents/GitHub/uControllers/XMC_Relax_Kit_Projects/NewHaven_Display/NewHaven_Display/Libraries/XMCLib/inc\xmc_gpio.h ****  * @return None
 161:C:/Users/RGoncalves/Documents/GitHub/uControllers/XMC_Relax_Kit_Projects/NewHaven_Display/NewHaven_Display/Libraries/XMCLib/inc\xmc_gpio.h ****  *
 162:C:/Users/RGoncalves/Documents/GitHub/uControllers/XMC_Relax_Kit_Projects/NewHaven_Display/NewHaven_Display/Libraries/XMCLib/inc\xmc_gpio.h ****  * \par<b>Description:</b><br>
 163:C:/Users/RGoncalves/Documents/GitHub/uControllers/XMC_Relax_Kit_Projects/NewHaven_Display/NewHaven_Display/Libraries/XMCLib/inc\xmc_gpio.h ****  * \if XMC1
 164:C:/Users/RGoncalves/Documents/GitHub/uControllers/XMC_Relax_Kit_Projects/NewHaven_Display/NewHaven_Display/Libraries/XMCLib/inc\xmc_gpio.h ****  * Initializes input / output mode settings like, pull up / pull down devices,hysteresis, push pull
 165:C:/Users/RGoncalves/Documents/GitHub/uControllers/XMC_Relax_Kit_Projects/NewHaven_Display/NewHaven_Display/Libraries/XMCLib/inc\xmc_gpio.h ****  * Also configures alternate function outputs and clears hardware port control for a selected \a po
 166:C:/Users/RGoncalves/Documents/GitHub/uControllers/XMC_Relax_Kit_Projects/NewHaven_Display/NewHaven_Display/Libraries/XMCLib/inc\xmc_gpio.h ****  * \a config provides selected I/O settings. It configures hardware registers Pn_IOCR,Pn_OUT, Pn_OM
 167:C:/Users/RGoncalves/Documents/GitHub/uControllers/XMC_Relax_Kit_Projects/NewHaven_Display/NewHaven_Display/Libraries/XMCLib/inc\xmc_gpio.h ****  * \endif
 168:C:/Users/RGoncalves/Documents/GitHub/uControllers/XMC_Relax_Kit_Projects/NewHaven_Display/NewHaven_Display/Libraries/XMCLib/inc\xmc_gpio.h ****  * \if XMC4
 169:C:/Users/RGoncalves/Documents/GitHub/uControllers/XMC_Relax_Kit_Projects/NewHaven_Display/NewHaven_Display/Libraries/XMCLib/inc\xmc_gpio.h ****  * Initializes input / output mode settings like, pull up / pull down devices,push pull /open drain
 170:C:/Users/RGoncalves/Documents/GitHub/uControllers/XMC_Relax_Kit_Projects/NewHaven_Display/NewHaven_Display/Libraries/XMCLib/inc\xmc_gpio.h ****  * Also configures alternate function outputs and clears hardware port control for selected \a port
 171:C:/Users/RGoncalves/Documents/GitHub/uControllers/XMC_Relax_Kit_Projects/NewHaven_Display/NewHaven_Display/Libraries/XMCLib/inc\xmc_gpio.h ****  * It configures hardware registers Pn_IOCR,Pn_OUT,Pn_OMR,Pn_PDISC and Pn_PDR.\n
 172:C:/Users/RGoncalves/Documents/GitHub/uControllers/XMC_Relax_Kit_Projects/NewHaven_Display/NewHaven_Display/Libraries/XMCLib/inc\xmc_gpio.h ****  * \endif
 173:C:/Users/RGoncalves/Documents/GitHub/uControllers/XMC_Relax_Kit_Projects/NewHaven_Display/NewHaven_Display/Libraries/XMCLib/inc\xmc_gpio.h ****  *
 174:C:/Users/RGoncalves/Documents/GitHub/uControllers/XMC_Relax_Kit_Projects/NewHaven_Display/NewHaven_Display/Libraries/XMCLib/inc\xmc_gpio.h ****  * \par<b>Related APIs:</b><BR>
 175:C:/Users/RGoncalves/Documents/GitHub/uControllers/XMC_Relax_Kit_Projects/NewHaven_Display/NewHaven_Display/Libraries/XMCLib/inc\xmc_gpio.h ****  *  None
 176:C:/Users/RGoncalves/Documents/GitHub/uControllers/XMC_Relax_Kit_Projects/NewHaven_Display/NewHaven_Display/Libraries/XMCLib/inc\xmc_gpio.h ****  *
 177:C:/Users/RGoncalves/Documents/GitHub/uControllers/XMC_Relax_Kit_Projects/NewHaven_Display/NewHaven_Display/Libraries/XMCLib/inc\xmc_gpio.h ****  * \par<b>Note:</b><br>
 178:C:/Users/RGoncalves/Documents/GitHub/uControllers/XMC_Relax_Kit_Projects/NewHaven_Display/NewHaven_Display/Libraries/XMCLib/inc\xmc_gpio.h ****  * This API is called in definition of DAVE_init by code generation and therefore should not be exp
 179:C:/Users/RGoncalves/Documents/GitHub/uControllers/XMC_Relax_Kit_Projects/NewHaven_Display/NewHaven_Display/Libraries/XMCLib/inc\xmc_gpio.h ****  * for the normal operation. Use other APIs only after DAVE_init is called successfully (returns DA
 180:C:/Users/RGoncalves/Documents/GitHub/uControllers/XMC_Relax_Kit_Projects/NewHaven_Display/NewHaven_Display/Libraries/XMCLib/inc\xmc_gpio.h ****  *
 181:C:/Users/RGoncalves/Documents/GitHub/uControllers/XMC_Relax_Kit_Projects/NewHaven_Display/NewHaven_Display/Libraries/XMCLib/inc\xmc_gpio.h ****  *
 182:C:/Users/RGoncalves/Documents/GitHub/uControllers/XMC_Relax_Kit_Projects/NewHaven_Display/NewHaven_Display/Libraries/XMCLib/inc\xmc_gpio.h ****  */
 183:C:/Users/RGoncalves/Documents/GitHub/uControllers/XMC_Relax_Kit_Projects/NewHaven_Display/NewHaven_Display/Libraries/XMCLib/inc\xmc_gpio.h **** 
 184:C:/Users/RGoncalves/Documents/GitHub/uControllers/XMC_Relax_Kit_Projects/NewHaven_Display/NewHaven_Display/Libraries/XMCLib/inc\xmc_gpio.h ****  
 185:C:/Users/RGoncalves/Documents/GitHub/uControllers/XMC_Relax_Kit_Projects/NewHaven_Display/NewHaven_Display/Libraries/XMCLib/inc\xmc_gpio.h **** void XMC_GPIO_Init(XMC_GPIO_PORT_t *const port, const uint8_t pin, const XMC_GPIO_CONFIG_t *const c
 186:C:/Users/RGoncalves/Documents/GitHub/uControllers/XMC_Relax_Kit_Projects/NewHaven_Display/NewHaven_Display/Libraries/XMCLib/inc\xmc_gpio.h ****  
 187:C:/Users/RGoncalves/Documents/GitHub/uControllers/XMC_Relax_Kit_Projects/NewHaven_Display/NewHaven_Display/Libraries/XMCLib/inc\xmc_gpio.h **** /**
 188:C:/Users/RGoncalves/Documents/GitHub/uControllers/XMC_Relax_Kit_Projects/NewHaven_Display/NewHaven_Display/Libraries/XMCLib/inc\xmc_gpio.h ****  *
 189:C:/Users/RGoncalves/Documents/GitHub/uControllers/XMC_Relax_Kit_Projects/NewHaven_Display/NewHaven_Display/Libraries/XMCLib/inc\xmc_gpio.h ****  * @param  port	Constant pointer pointing to GPIO port, to access hardware register Pn_IOCR.
 190:C:/Users/RGoncalves/Documents/GitHub/uControllers/XMC_Relax_Kit_Projects/NewHaven_Display/NewHaven_Display/Libraries/XMCLib/inc\xmc_gpio.h ****  * @param  pin	Port pin number.
 191:C:/Users/RGoncalves/Documents/GitHub/uControllers/XMC_Relax_Kit_Projects/NewHaven_Display/NewHaven_Display/Libraries/XMCLib/inc\xmc_gpio.h ****  * @param  mode input / output functionality selection. Refer @ref XMC_GPIO_MODE_t for valid values
 192:C:/Users/RGoncalves/Documents/GitHub/uControllers/XMC_Relax_Kit_Projects/NewHaven_Display/NewHaven_Display/Libraries/XMCLib/inc\xmc_gpio.h ****  *
 193:C:/Users/RGoncalves/Documents/GitHub/uControllers/XMC_Relax_Kit_Projects/NewHaven_Display/NewHaven_Display/Libraries/XMCLib/inc\xmc_gpio.h ****  * @return None
 194:C:/Users/RGoncalves/Documents/GitHub/uControllers/XMC_Relax_Kit_Projects/NewHaven_Display/NewHaven_Display/Libraries/XMCLib/inc\xmc_gpio.h ****  *
 195:C:/Users/RGoncalves/Documents/GitHub/uControllers/XMC_Relax_Kit_Projects/NewHaven_Display/NewHaven_Display/Libraries/XMCLib/inc\xmc_gpio.h ****  * \par<b>Description:</b><br>
 196:C:/Users/RGoncalves/Documents/GitHub/uControllers/XMC_Relax_Kit_Projects/NewHaven_Display/NewHaven_Display/Libraries/XMCLib/inc\xmc_gpio.h ****  * Sets digital input and output driver functionality and characteristics of a GPIO port pin. It co
 197:C:/Users/RGoncalves/Documents/GitHub/uControllers/XMC_Relax_Kit_Projects/NewHaven_Display/NewHaven_Display/Libraries/XMCLib/inc\xmc_gpio.h ****  * registers Pn_IOCR. \a mode is initially configured during initialization in XMC_GPIO_Init(). Cal
 198:C:/Users/RGoncalves/Documents/GitHub/uControllers/XMC_Relax_Kit_Projects/NewHaven_Display/NewHaven_Display/Libraries/XMCLib/inc\xmc_gpio.h ****  * the port direction functionality as needed later in the program.
 199:C:/Users/RGoncalves/Documents/GitHub/uControllers/XMC_Relax_Kit_Projects/NewHaven_Display/NewHaven_Display/Libraries/XMCLib/inc\xmc_gpio.h ****  *
 200:C:/Users/RGoncalves/Documents/GitHub/uControllers/XMC_Relax_Kit_Projects/NewHaven_Display/NewHaven_Display/Libraries/XMCLib/inc\xmc_gpio.h ****  * \par<b>Related APIs:</b><BR>
 201:C:/Users/RGoncalves/Documents/GitHub/uControllers/XMC_Relax_Kit_Projects/NewHaven_Display/NewHaven_Display/Libraries/XMCLib/inc\xmc_gpio.h ****  *  None
 202:C:/Users/RGoncalves/Documents/GitHub/uControllers/XMC_Relax_Kit_Projects/NewHaven_Display/NewHaven_Display/Libraries/XMCLib/inc\xmc_gpio.h ****  *
 203:C:/Users/RGoncalves/Documents/GitHub/uControllers/XMC_Relax_Kit_Projects/NewHaven_Display/NewHaven_Display/Libraries/XMCLib/inc\xmc_gpio.h ****  */
 204:C:/Users/RGoncalves/Documents/GitHub/uControllers/XMC_Relax_Kit_Projects/NewHaven_Display/NewHaven_Display/Libraries/XMCLib/inc\xmc_gpio.h **** 
 205:C:/Users/RGoncalves/Documents/GitHub/uControllers/XMC_Relax_Kit_Projects/NewHaven_Display/NewHaven_Display/Libraries/XMCLib/inc\xmc_gpio.h **** void XMC_GPIO_SetMode(XMC_GPIO_PORT_t *const port, const uint8_t pin, const XMC_GPIO_MODE_t mode);
 206:C:/Users/RGoncalves/Documents/GitHub/uControllers/XMC_Relax_Kit_Projects/NewHaven_Display/NewHaven_Display/Libraries/XMCLib/inc\xmc_gpio.h **** 
 207:C:/Users/RGoncalves/Documents/GitHub/uControllers/XMC_Relax_Kit_Projects/NewHaven_Display/NewHaven_Display/Libraries/XMCLib/inc\xmc_gpio.h **** 
 208:C:/Users/RGoncalves/Documents/GitHub/uControllers/XMC_Relax_Kit_Projects/NewHaven_Display/NewHaven_Display/Libraries/XMCLib/inc\xmc_gpio.h **** /**
 209:C:/Users/RGoncalves/Documents/GitHub/uControllers/XMC_Relax_Kit_Projects/NewHaven_Display/NewHaven_Display/Libraries/XMCLib/inc\xmc_gpio.h ****  *
 210:C:/Users/RGoncalves/Documents/GitHub/uControllers/XMC_Relax_Kit_Projects/NewHaven_Display/NewHaven_Display/Libraries/XMCLib/inc\xmc_gpio.h ****  * @param  port	 Constant pointer pointing to GPIO port, to access hardware register Pn_OMR.
 211:C:/Users/RGoncalves/Documents/GitHub/uControllers/XMC_Relax_Kit_Projects/NewHaven_Display/NewHaven_Display/Libraries/XMCLib/inc\xmc_gpio.h ****  * @param  pin	 Port pin number.
 212:C:/Users/RGoncalves/Documents/GitHub/uControllers/XMC_Relax_Kit_Projects/NewHaven_Display/NewHaven_Display/Libraries/XMCLib/inc\xmc_gpio.h ****  * @param  level output level selection. Refer @ref XMC_GPIO_OUTPUT_LEVEL_t for valid values.
 213:C:/Users/RGoncalves/Documents/GitHub/uControllers/XMC_Relax_Kit_Projects/NewHaven_Display/NewHaven_Display/Libraries/XMCLib/inc\xmc_gpio.h ****  *
 214:C:/Users/RGoncalves/Documents/GitHub/uControllers/XMC_Relax_Kit_Projects/NewHaven_Display/NewHaven_Display/Libraries/XMCLib/inc\xmc_gpio.h ****  * @return None
 215:C:/Users/RGoncalves/Documents/GitHub/uControllers/XMC_Relax_Kit_Projects/NewHaven_Display/NewHaven_Display/Libraries/XMCLib/inc\xmc_gpio.h ****  *
 216:C:/Users/RGoncalves/Documents/GitHub/uControllers/XMC_Relax_Kit_Projects/NewHaven_Display/NewHaven_Display/Libraries/XMCLib/inc\xmc_gpio.h ****  * \par<b>Description:</b><br>
 217:C:/Users/RGoncalves/Documents/GitHub/uControllers/XMC_Relax_Kit_Projects/NewHaven_Display/NewHaven_Display/Libraries/XMCLib/inc\xmc_gpio.h ****  * Set port pin output level to high or low.It configures hardware registers Pn_OMR.\a level is ini
 218:C:/Users/RGoncalves/Documents/GitHub/uControllers/XMC_Relax_Kit_Projects/NewHaven_Display/NewHaven_Display/Libraries/XMCLib/inc\xmc_gpio.h ****  * configured during initialization in XMC_GPIO_Init(). Call this API to alter output level as need
 219:C:/Users/RGoncalves/Documents/GitHub/uControllers/XMC_Relax_Kit_Projects/NewHaven_Display/NewHaven_Display/Libraries/XMCLib/inc\xmc_gpio.h ****  *
 220:C:/Users/RGoncalves/Documents/GitHub/uControllers/XMC_Relax_Kit_Projects/NewHaven_Display/NewHaven_Display/Libraries/XMCLib/inc\xmc_gpio.h ****  * \par<b>Related APIs:</b><BR>
 221:C:/Users/RGoncalves/Documents/GitHub/uControllers/XMC_Relax_Kit_Projects/NewHaven_Display/NewHaven_Display/Libraries/XMCLib/inc\xmc_gpio.h ****  *  XMC_GPIO_SetOutputHigh(), XMC_GPIO_SetOutputLow().
 222:C:/Users/RGoncalves/Documents/GitHub/uControllers/XMC_Relax_Kit_Projects/NewHaven_Display/NewHaven_Display/Libraries/XMCLib/inc\xmc_gpio.h ****  *
 223:C:/Users/RGoncalves/Documents/GitHub/uControllers/XMC_Relax_Kit_Projects/NewHaven_Display/NewHaven_Display/Libraries/XMCLib/inc\xmc_gpio.h ****  * \par<b>Note:</b><br>
 224:C:/Users/RGoncalves/Documents/GitHub/uControllers/XMC_Relax_Kit_Projects/NewHaven_Display/NewHaven_Display/Libraries/XMCLib/inc\xmc_gpio.h ****  * Prior to this api, user has to configure port pin to output mode using XMC_GPIO_SetMode().
 225:C:/Users/RGoncalves/Documents/GitHub/uControllers/XMC_Relax_Kit_Projects/NewHaven_Display/NewHaven_Display/Libraries/XMCLib/inc\xmc_gpio.h ****  *
 226:C:/Users/RGoncalves/Documents/GitHub/uControllers/XMC_Relax_Kit_Projects/NewHaven_Display/NewHaven_Display/Libraries/XMCLib/inc\xmc_gpio.h ****  */
 227:C:/Users/RGoncalves/Documents/GitHub/uControllers/XMC_Relax_Kit_Projects/NewHaven_Display/NewHaven_Display/Libraries/XMCLib/inc\xmc_gpio.h **** 
 228:C:/Users/RGoncalves/Documents/GitHub/uControllers/XMC_Relax_Kit_Projects/NewHaven_Display/NewHaven_Display/Libraries/XMCLib/inc\xmc_gpio.h **** 
 229:C:/Users/RGoncalves/Documents/GitHub/uControllers/XMC_Relax_Kit_Projects/NewHaven_Display/NewHaven_Display/Libraries/XMCLib/inc\xmc_gpio.h **** __STATIC_INLINE void XMC_GPIO_SetOutputLevel(XMC_GPIO_PORT_t *const port, const uint8_t pin, const 
 230:C:/Users/RGoncalves/Documents/GitHub/uControllers/XMC_Relax_Kit_Projects/NewHaven_Display/NewHaven_Display/Libraries/XMCLib/inc\xmc_gpio.h **** {
 231:C:/Users/RGoncalves/Documents/GitHub/uControllers/XMC_Relax_Kit_Projects/NewHaven_Display/NewHaven_Display/Libraries/XMCLib/inc\xmc_gpio.h ****   XMC_ASSERT("XMC_GPIO_SetOutputLevel: Invalid port", XMC_GPIO_CHECK_OUTPUT_PORT(port));
 232:C:/Users/RGoncalves/Documents/GitHub/uControllers/XMC_Relax_Kit_Projects/NewHaven_Display/NewHaven_Display/Libraries/XMCLib/inc\xmc_gpio.h ****   XMC_ASSERT("XMC_GPIO_SetOutputLevel: Invalid output level", XMC_GPIO_CHECK_OUTPUT_LEVEL(level));
 233:C:/Users/RGoncalves/Documents/GitHub/uControllers/XMC_Relax_Kit_Projects/NewHaven_Display/NewHaven_Display/Libraries/XMCLib/inc\xmc_gpio.h ****   
 234:C:/Users/RGoncalves/Documents/GitHub/uControllers/XMC_Relax_Kit_Projects/NewHaven_Display/NewHaven_Display/Libraries/XMCLib/inc\xmc_gpio.h ****   port->OMR = (uint32_t)level << pin;
 235:C:/Users/RGoncalves/Documents/GitHub/uControllers/XMC_Relax_Kit_Projects/NewHaven_Display/NewHaven_Display/Libraries/XMCLib/inc\xmc_gpio.h **** }
 236:C:/Users/RGoncalves/Documents/GitHub/uControllers/XMC_Relax_Kit_Projects/NewHaven_Display/NewHaven_Display/Libraries/XMCLib/inc\xmc_gpio.h **** 
 237:C:/Users/RGoncalves/Documents/GitHub/uControllers/XMC_Relax_Kit_Projects/NewHaven_Display/NewHaven_Display/Libraries/XMCLib/inc\xmc_gpio.h **** 
 238:C:/Users/RGoncalves/Documents/GitHub/uControllers/XMC_Relax_Kit_Projects/NewHaven_Display/NewHaven_Display/Libraries/XMCLib/inc\xmc_gpio.h **** /**
 239:C:/Users/RGoncalves/Documents/GitHub/uControllers/XMC_Relax_Kit_Projects/NewHaven_Display/NewHaven_Display/Libraries/XMCLib/inc\xmc_gpio.h ****  * @param  port constant pointer pointing to GPIO port, to access hardware register Pn_OMR.
 240:C:/Users/RGoncalves/Documents/GitHub/uControllers/XMC_Relax_Kit_Projects/NewHaven_Display/NewHaven_Display/Libraries/XMCLib/inc\xmc_gpio.h ****  * @param  pin	Port pin number.
 241:C:/Users/RGoncalves/Documents/GitHub/uControllers/XMC_Relax_Kit_Projects/NewHaven_Display/NewHaven_Display/Libraries/XMCLib/inc\xmc_gpio.h ****  *
 242:C:/Users/RGoncalves/Documents/GitHub/uControllers/XMC_Relax_Kit_Projects/NewHaven_Display/NewHaven_Display/Libraries/XMCLib/inc\xmc_gpio.h ****  * @return None
 243:C:/Users/RGoncalves/Documents/GitHub/uControllers/XMC_Relax_Kit_Projects/NewHaven_Display/NewHaven_Display/Libraries/XMCLib/inc\xmc_gpio.h ****  *
 244:C:/Users/RGoncalves/Documents/GitHub/uControllers/XMC_Relax_Kit_Projects/NewHaven_Display/NewHaven_Display/Libraries/XMCLib/inc\xmc_gpio.h ****  * \par<b>Description:</b><br>
 245:C:/Users/RGoncalves/Documents/GitHub/uControllers/XMC_Relax_Kit_Projects/NewHaven_Display/NewHaven_Display/Libraries/XMCLib/inc\xmc_gpio.h ****  *  Sets port pin output to high. It configures hardware registers Pn_OMR.
 246:C:/Users/RGoncalves/Documents/GitHub/uControllers/XMC_Relax_Kit_Projects/NewHaven_Display/NewHaven_Display/Libraries/XMCLib/inc\xmc_gpio.h ****  *
 247:C:/Users/RGoncalves/Documents/GitHub/uControllers/XMC_Relax_Kit_Projects/NewHaven_Display/NewHaven_Display/Libraries/XMCLib/inc\xmc_gpio.h ****  *  \par<b>Related APIs:</b><BR>
 248:C:/Users/RGoncalves/Documents/GitHub/uControllers/XMC_Relax_Kit_Projects/NewHaven_Display/NewHaven_Display/Libraries/XMCLib/inc\xmc_gpio.h ****  *  XMC_GPIO_SetOutputLow()
 249:C:/Users/RGoncalves/Documents/GitHub/uControllers/XMC_Relax_Kit_Projects/NewHaven_Display/NewHaven_Display/Libraries/XMCLib/inc\xmc_gpio.h ****  *
 250:C:/Users/RGoncalves/Documents/GitHub/uControllers/XMC_Relax_Kit_Projects/NewHaven_Display/NewHaven_Display/Libraries/XMCLib/inc\xmc_gpio.h ****  * \par<b>Note:</b><br>
 251:C:/Users/RGoncalves/Documents/GitHub/uControllers/XMC_Relax_Kit_Projects/NewHaven_Display/NewHaven_Display/Libraries/XMCLib/inc\xmc_gpio.h ****  * Prior to this api, user has to configure port pin to output mode using XMC_GPIO_SetMode().\n
 252:C:/Users/RGoncalves/Documents/GitHub/uControllers/XMC_Relax_Kit_Projects/NewHaven_Display/NewHaven_Display/Libraries/XMCLib/inc\xmc_gpio.h ****  * Register Pn_OMR is virtual and does not contain any flip-flop. A read action delivers the value 
 253:C:/Users/RGoncalves/Documents/GitHub/uControllers/XMC_Relax_Kit_Projects/NewHaven_Display/NewHaven_Display/Libraries/XMCLib/inc\xmc_gpio.h ****  *
 254:C:/Users/RGoncalves/Documents/GitHub/uControllers/XMC_Relax_Kit_Projects/NewHaven_Display/NewHaven_Display/Libraries/XMCLib/inc\xmc_gpio.h ****  */
 255:C:/Users/RGoncalves/Documents/GitHub/uControllers/XMC_Relax_Kit_Projects/NewHaven_Display/NewHaven_Display/Libraries/XMCLib/inc\xmc_gpio.h **** 
 256:C:/Users/RGoncalves/Documents/GitHub/uControllers/XMC_Relax_Kit_Projects/NewHaven_Display/NewHaven_Display/Libraries/XMCLib/inc\xmc_gpio.h **** __STATIC_INLINE void XMC_GPIO_SetOutputHigh(XMC_GPIO_PORT_t *const port, const uint8_t pin)
 257:C:/Users/RGoncalves/Documents/GitHub/uControllers/XMC_Relax_Kit_Projects/NewHaven_Display/NewHaven_Display/Libraries/XMCLib/inc\xmc_gpio.h **** {
  27              	 .loc 1 257 0
  28              	 .cfi_startproc
  29              	 
  30              	 
  31              	 
  32 0000 80B4     	 push {r7}
  33              	.LCFI0:
  34              	 .cfi_def_cfa_offset 4
  35              	 .cfi_offset 7,-4
  36 0002 83B0     	 sub sp,sp,#12
  37              	.LCFI1:
  38              	 .cfi_def_cfa_offset 16
  39 0004 00AF     	 add r7,sp,#0
  40              	.LCFI2:
  41              	 .cfi_def_cfa_register 7
  42 0006 7860     	 str r0,[r7,#4]
  43 0008 0B46     	 mov r3,r1
  44 000a FB70     	 strb r3,[r7,#3]
 258:C:/Users/RGoncalves/Documents/GitHub/uControllers/XMC_Relax_Kit_Projects/NewHaven_Display/NewHaven_Display/Libraries/XMCLib/inc\xmc_gpio.h ****   XMC_ASSERT("XMC_GPIO_SetOutputHigh: Invalid port", XMC_GPIO_CHECK_OUTPUT_PORT(port));
 259:C:/Users/RGoncalves/Documents/GitHub/uControllers/XMC_Relax_Kit_Projects/NewHaven_Display/NewHaven_Display/Libraries/XMCLib/inc\xmc_gpio.h **** 
 260:C:/Users/RGoncalves/Documents/GitHub/uControllers/XMC_Relax_Kit_Projects/NewHaven_Display/NewHaven_Display/Libraries/XMCLib/inc\xmc_gpio.h ****   port->OMR = (uint32_t)0x1U << pin;
  45              	 .loc 1 260 0
  46 000c FB78     	 ldrb r3,[r7,#3]
  47 000e 0122     	 movs r2,#1
  48 0010 9A40     	 lsls r2,r2,r3
  49 0012 7B68     	 ldr r3,[r7,#4]
  50 0014 5A60     	 str r2,[r3,#4]
 261:C:/Users/RGoncalves/Documents/GitHub/uControllers/XMC_Relax_Kit_Projects/NewHaven_Display/NewHaven_Display/Libraries/XMCLib/inc\xmc_gpio.h **** }
  51              	 .loc 1 261 0
  52 0016 0C37     	 adds r7,r7,#12
  53              	.LCFI3:
  54              	 .cfi_def_cfa_offset 4
  55 0018 BD46     	 mov sp,r7
  56              	.LCFI4:
  57              	 .cfi_def_cfa_register 13
  58              	 
  59 001a 5DF8047B 	 ldr r7,[sp],#4
  60              	.LCFI5:
  61              	 .cfi_restore 7
  62              	 .cfi_def_cfa_offset 0
  63 001e 7047     	 bx lr
  64              	 .cfi_endproc
  65              	.LFE177:
  67              	 .section .text.XMC_GPIO_SetOutputLow,"ax",%progbits
  68              	 .align 2
  69              	 .thumb
  70              	 .thumb_func
  72              	XMC_GPIO_SetOutputLow:
  73              	.LFB178:
 262:C:/Users/RGoncalves/Documents/GitHub/uControllers/XMC_Relax_Kit_Projects/NewHaven_Display/NewHaven_Display/Libraries/XMCLib/inc\xmc_gpio.h **** 
 263:C:/Users/RGoncalves/Documents/GitHub/uControllers/XMC_Relax_Kit_Projects/NewHaven_Display/NewHaven_Display/Libraries/XMCLib/inc\xmc_gpio.h **** /**
 264:C:/Users/RGoncalves/Documents/GitHub/uControllers/XMC_Relax_Kit_Projects/NewHaven_Display/NewHaven_Display/Libraries/XMCLib/inc\xmc_gpio.h ****  *
 265:C:/Users/RGoncalves/Documents/GitHub/uControllers/XMC_Relax_Kit_Projects/NewHaven_Display/NewHaven_Display/Libraries/XMCLib/inc\xmc_gpio.h ****  * @param  port	constant pointer pointing to GPIO port, to access hardware register Pn_OMR.
 266:C:/Users/RGoncalves/Documents/GitHub/uControllers/XMC_Relax_Kit_Projects/NewHaven_Display/NewHaven_Display/Libraries/XMCLib/inc\xmc_gpio.h ****  * @param  pin	port pin number.
 267:C:/Users/RGoncalves/Documents/GitHub/uControllers/XMC_Relax_Kit_Projects/NewHaven_Display/NewHaven_Display/Libraries/XMCLib/inc\xmc_gpio.h ****  *
 268:C:/Users/RGoncalves/Documents/GitHub/uControllers/XMC_Relax_Kit_Projects/NewHaven_Display/NewHaven_Display/Libraries/XMCLib/inc\xmc_gpio.h ****  * @return  None
 269:C:/Users/RGoncalves/Documents/GitHub/uControllers/XMC_Relax_Kit_Projects/NewHaven_Display/NewHaven_Display/Libraries/XMCLib/inc\xmc_gpio.h ****  *
 270:C:/Users/RGoncalves/Documents/GitHub/uControllers/XMC_Relax_Kit_Projects/NewHaven_Display/NewHaven_Display/Libraries/XMCLib/inc\xmc_gpio.h ****  *\par<b>Description:</b><br>
 271:C:/Users/RGoncalves/Documents/GitHub/uControllers/XMC_Relax_Kit_Projects/NewHaven_Display/NewHaven_Display/Libraries/XMCLib/inc\xmc_gpio.h ****  * Sets port pin output to low. It configures hardware registers Pn_OMR.\n
 272:C:/Users/RGoncalves/Documents/GitHub/uControllers/XMC_Relax_Kit_Projects/NewHaven_Display/NewHaven_Display/Libraries/XMCLib/inc\xmc_gpio.h ****  *
 273:C:/Users/RGoncalves/Documents/GitHub/uControllers/XMC_Relax_Kit_Projects/NewHaven_Display/NewHaven_Display/Libraries/XMCLib/inc\xmc_gpio.h ****  * \par<b>Related APIs:</b><BR>>
 274:C:/Users/RGoncalves/Documents/GitHub/uControllers/XMC_Relax_Kit_Projects/NewHaven_Display/NewHaven_Display/Libraries/XMCLib/inc\xmc_gpio.h ****  * XMC_GPIO_SetOutputHigh()
 275:C:/Users/RGoncalves/Documents/GitHub/uControllers/XMC_Relax_Kit_Projects/NewHaven_Display/NewHaven_Display/Libraries/XMCLib/inc\xmc_gpio.h ****  *
 276:C:/Users/RGoncalves/Documents/GitHub/uControllers/XMC_Relax_Kit_Projects/NewHaven_Display/NewHaven_Display/Libraries/XMCLib/inc\xmc_gpio.h ****  *\par<b>Note:</b><br>
 277:C:/Users/RGoncalves/Documents/GitHub/uControllers/XMC_Relax_Kit_Projects/NewHaven_Display/NewHaven_Display/Libraries/XMCLib/inc\xmc_gpio.h ****  * Prior to this api, user has to configure port pin to output mode using XMC_GPIO_SetMode().
 278:C:/Users/RGoncalves/Documents/GitHub/uControllers/XMC_Relax_Kit_Projects/NewHaven_Display/NewHaven_Display/Libraries/XMCLib/inc\xmc_gpio.h ****  * Register Pn_OMR is virtual and does not contain any flip-flop. A read action delivers the value 
 279:C:/Users/RGoncalves/Documents/GitHub/uControllers/XMC_Relax_Kit_Projects/NewHaven_Display/NewHaven_Display/Libraries/XMCLib/inc\xmc_gpio.h ****  *
 280:C:/Users/RGoncalves/Documents/GitHub/uControllers/XMC_Relax_Kit_Projects/NewHaven_Display/NewHaven_Display/Libraries/XMCLib/inc\xmc_gpio.h ****  */
 281:C:/Users/RGoncalves/Documents/GitHub/uControllers/XMC_Relax_Kit_Projects/NewHaven_Display/NewHaven_Display/Libraries/XMCLib/inc\xmc_gpio.h **** 
 282:C:/Users/RGoncalves/Documents/GitHub/uControllers/XMC_Relax_Kit_Projects/NewHaven_Display/NewHaven_Display/Libraries/XMCLib/inc\xmc_gpio.h **** __STATIC_INLINE void XMC_GPIO_SetOutputLow(XMC_GPIO_PORT_t *const port, const uint8_t pin)
 283:C:/Users/RGoncalves/Documents/GitHub/uControllers/XMC_Relax_Kit_Projects/NewHaven_Display/NewHaven_Display/Libraries/XMCLib/inc\xmc_gpio.h **** {
  74              	 .loc 1 283 0
  75              	 .cfi_startproc
  76              	 
  77              	 
  78              	 
  79 0000 80B4     	 push {r7}
  80              	.LCFI6:
  81              	 .cfi_def_cfa_offset 4
  82              	 .cfi_offset 7,-4
  83 0002 83B0     	 sub sp,sp,#12
  84              	.LCFI7:
  85              	 .cfi_def_cfa_offset 16
  86 0004 00AF     	 add r7,sp,#0
  87              	.LCFI8:
  88              	 .cfi_def_cfa_register 7
  89 0006 7860     	 str r0,[r7,#4]
  90 0008 0B46     	 mov r3,r1
  91 000a FB70     	 strb r3,[r7,#3]
 284:C:/Users/RGoncalves/Documents/GitHub/uControllers/XMC_Relax_Kit_Projects/NewHaven_Display/NewHaven_Display/Libraries/XMCLib/inc\xmc_gpio.h ****   XMC_ASSERT("XMC_GPIO_SetOutputLow: Invalid port", XMC_GPIO_CHECK_OUTPUT_PORT(port));
 285:C:/Users/RGoncalves/Documents/GitHub/uControllers/XMC_Relax_Kit_Projects/NewHaven_Display/NewHaven_Display/Libraries/XMCLib/inc\xmc_gpio.h **** 
 286:C:/Users/RGoncalves/Documents/GitHub/uControllers/XMC_Relax_Kit_Projects/NewHaven_Display/NewHaven_Display/Libraries/XMCLib/inc\xmc_gpio.h ****   port->OMR = 0x10000U << pin;
  92              	 .loc 1 286 0
  93 000c FB78     	 ldrb r3,[r7,#3]
  94 000e 4FF48032 	 mov r2,#65536
  95 0012 9A40     	 lsls r2,r2,r3
  96 0014 7B68     	 ldr r3,[r7,#4]
  97 0016 5A60     	 str r2,[r3,#4]
 287:C:/Users/RGoncalves/Documents/GitHub/uControllers/XMC_Relax_Kit_Projects/NewHaven_Display/NewHaven_Display/Libraries/XMCLib/inc\xmc_gpio.h **** }
  98              	 .loc 1 287 0
  99 0018 0C37     	 adds r7,r7,#12
 100              	.LCFI9:
 101              	 .cfi_def_cfa_offset 4
 102 001a BD46     	 mov sp,r7
 103              	.LCFI10:
 104              	 .cfi_def_cfa_register 13
 105              	 
 106 001c 5DF8047B 	 ldr r7,[sp],#4
 107              	.LCFI11:
 108              	 .cfi_restore 7
 109              	 .cfi_def_cfa_offset 0
 110 0020 7047     	 bx lr
 111              	 .cfi_endproc
 112              	.LFE178:
 114 0022 00BF     	 .section .text.DIGITAL_IO_SetOutputHigh,"ax",%progbits
 115              	 .align 2
 116              	 .thumb
 117              	 .thumb_func
 119              	DIGITAL_IO_SetOutputHigh:
 120              	.LFB306:
 121              	 .file 2 "C:/Users/RGoncalves/Documents/GitHub/uControllers/XMC_Relax_Kit_Projects/NewHaven_Display/NewHaven_Display/Dave/Generated/DIGITAL_IO/digital_io.h"
   1:C:/Users/RGoncalves/Documents/GitHub/uControllers/XMC_Relax_Kit_Projects/NewHaven_Display/NewHaven_Display/Dave/Generated/DIGITAL_IO\digital_io.h **** /*
   2:C:/Users/RGoncalves/Documents/GitHub/uControllers/XMC_Relax_Kit_Projects/NewHaven_Display/NewHaven_Display/Dave/Generated/DIGITAL_IO\digital_io.h ****  *
   3:C:/Users/RGoncalves/Documents/GitHub/uControllers/XMC_Relax_Kit_Projects/NewHaven_Display/NewHaven_Display/Dave/Generated/DIGITAL_IO\digital_io.h ****  * @file digital_io.h
   4:C:/Users/RGoncalves/Documents/GitHub/uControllers/XMC_Relax_Kit_Projects/NewHaven_Display/NewHaven_Display/Dave/Generated/DIGITAL_IO\digital_io.h ****  * @date 2016-07-08
   5:C:/Users/RGoncalves/Documents/GitHub/uControllers/XMC_Relax_Kit_Projects/NewHaven_Display/NewHaven_Display/Dave/Generated/DIGITAL_IO\digital_io.h ****  *
   6:C:/Users/RGoncalves/Documents/GitHub/uControllers/XMC_Relax_Kit_Projects/NewHaven_Display/NewHaven_Display/Dave/Generated/DIGITAL_IO\digital_io.h ****  * NOTE:
   7:C:/Users/RGoncalves/Documents/GitHub/uControllers/XMC_Relax_Kit_Projects/NewHaven_Display/NewHaven_Display/Dave/Generated/DIGITAL_IO\digital_io.h ****  * This file is generated by DAVE. Any manual modification done to this file will be lost when the 
   8:C:/Users/RGoncalves/Documents/GitHub/uControllers/XMC_Relax_Kit_Projects/NewHaven_Display/NewHaven_Display/Dave/Generated/DIGITAL_IO\digital_io.h ****  *
   9:C:/Users/RGoncalves/Documents/GitHub/uControllers/XMC_Relax_Kit_Projects/NewHaven_Display/NewHaven_Display/Dave/Generated/DIGITAL_IO\digital_io.h ****  * @cond
  10:C:/Users/RGoncalves/Documents/GitHub/uControllers/XMC_Relax_Kit_Projects/NewHaven_Display/NewHaven_Display/Dave/Generated/DIGITAL_IO\digital_io.h ****  **************************************************************************************************
  11:C:/Users/RGoncalves/Documents/GitHub/uControllers/XMC_Relax_Kit_Projects/NewHaven_Display/NewHaven_Display/Dave/Generated/DIGITAL_IO\digital_io.h ****  * DIGITAL_IO v4.0.16 - The DIGITAL_IO APP is used to configure a port pin as digital Input/Output.
  12:C:/Users/RGoncalves/Documents/GitHub/uControllers/XMC_Relax_Kit_Projects/NewHaven_Display/NewHaven_Display/Dave/Generated/DIGITAL_IO\digital_io.h ****  *
  13:C:/Users/RGoncalves/Documents/GitHub/uControllers/XMC_Relax_Kit_Projects/NewHaven_Display/NewHaven_Display/Dave/Generated/DIGITAL_IO\digital_io.h ****  * Copyright (c) 2015-2016, Infineon Technologies AG
  14:C:/Users/RGoncalves/Documents/GitHub/uControllers/XMC_Relax_Kit_Projects/NewHaven_Display/NewHaven_Display/Dave/Generated/DIGITAL_IO\digital_io.h ****  * All rights reserved.
  15:C:/Users/RGoncalves/Documents/GitHub/uControllers/XMC_Relax_Kit_Projects/NewHaven_Display/NewHaven_Display/Dave/Generated/DIGITAL_IO\digital_io.h ****  *
  16:C:/Users/RGoncalves/Documents/GitHub/uControllers/XMC_Relax_Kit_Projects/NewHaven_Display/NewHaven_Display/Dave/Generated/DIGITAL_IO\digital_io.h ****  * Redistribution and use in source and binary forms, with or without modification,are permitted pr
  17:C:/Users/RGoncalves/Documents/GitHub/uControllers/XMC_Relax_Kit_Projects/NewHaven_Display/NewHaven_Display/Dave/Generated/DIGITAL_IO\digital_io.h ****  * following conditions are met:
  18:C:/Users/RGoncalves/Documents/GitHub/uControllers/XMC_Relax_Kit_Projects/NewHaven_Display/NewHaven_Display/Dave/Generated/DIGITAL_IO\digital_io.h ****  *
  19:C:/Users/RGoncalves/Documents/GitHub/uControllers/XMC_Relax_Kit_Projects/NewHaven_Display/NewHaven_Display/Dave/Generated/DIGITAL_IO\digital_io.h ****  *   Redistributions of source code must retain the above copyright notice, this list of conditions
  20:C:/Users/RGoncalves/Documents/GitHub/uControllers/XMC_Relax_Kit_Projects/NewHaven_Display/NewHaven_Display/Dave/Generated/DIGITAL_IO\digital_io.h ****  *   disclaimer.
  21:C:/Users/RGoncalves/Documents/GitHub/uControllers/XMC_Relax_Kit_Projects/NewHaven_Display/NewHaven_Display/Dave/Generated/DIGITAL_IO\digital_io.h ****  *
  22:C:/Users/RGoncalves/Documents/GitHub/uControllers/XMC_Relax_Kit_Projects/NewHaven_Display/NewHaven_Display/Dave/Generated/DIGITAL_IO\digital_io.h ****  *   Redistributions in binary form must reproduce the above copyright notice, this list of conditi
  23:C:/Users/RGoncalves/Documents/GitHub/uControllers/XMC_Relax_Kit_Projects/NewHaven_Display/NewHaven_Display/Dave/Generated/DIGITAL_IO\digital_io.h ****  *   following disclaimer in the documentation and/or other materials provided with the distributio
  24:C:/Users/RGoncalves/Documents/GitHub/uControllers/XMC_Relax_Kit_Projects/NewHaven_Display/NewHaven_Display/Dave/Generated/DIGITAL_IO\digital_io.h ****  *
  25:C:/Users/RGoncalves/Documents/GitHub/uControllers/XMC_Relax_Kit_Projects/NewHaven_Display/NewHaven_Display/Dave/Generated/DIGITAL_IO\digital_io.h ****  *   Neither the name of the copyright holders nor the names of its contributors may be used to end
  26:C:/Users/RGoncalves/Documents/GitHub/uControllers/XMC_Relax_Kit_Projects/NewHaven_Display/NewHaven_Display/Dave/Generated/DIGITAL_IO\digital_io.h ****  *   products derived from this software without specific prior written permission.
  27:C:/Users/RGoncalves/Documents/GitHub/uControllers/XMC_Relax_Kit_Projects/NewHaven_Display/NewHaven_Display/Dave/Generated/DIGITAL_IO\digital_io.h ****  *
  28:C:/Users/RGoncalves/Documents/GitHub/uControllers/XMC_Relax_Kit_Projects/NewHaven_Display/NewHaven_Display/Dave/Generated/DIGITAL_IO\digital_io.h ****  * THIS SOFTWARE IS PROVIDED BY THE COPYRIGHT HOLDERS AND CONTRIBUTORS "AS IS" AND ANY EXPRESS OR I
  29:C:/Users/RGoncalves/Documents/GitHub/uControllers/XMC_Relax_Kit_Projects/NewHaven_Display/NewHaven_Display/Dave/Generated/DIGITAL_IO\digital_io.h ****  * INCLUDING, BUT NOT LIMITED TO, THE IMPLIED WARRANTIES OF MERCHANTABILITY AND FITNESS FOR A PARTI
  30:C:/Users/RGoncalves/Documents/GitHub/uControllers/XMC_Relax_Kit_Projects/NewHaven_Display/NewHaven_Display/Dave/Generated/DIGITAL_IO\digital_io.h ****  * DISCLAIMED. IN NO EVENT SHALL THE COPYRIGHT HOLDER OR CONTRIBUTORS BE LIABLE  FOR ANY DIRECT, IN
  31:C:/Users/RGoncalves/Documents/GitHub/uControllers/XMC_Relax_Kit_Projects/NewHaven_Display/NewHaven_Display/Dave/Generated/DIGITAL_IO\digital_io.h ****  * SPECIAL, EXEMPLARY, OR CONSEQUENTIAL DAMAGES (INCLUDING, BUT NOT LIMITED TO, PROCUREMENT OF SUBS
  32:C:/Users/RGoncalves/Documents/GitHub/uControllers/XMC_Relax_Kit_Projects/NewHaven_Display/NewHaven_Display/Dave/Generated/DIGITAL_IO\digital_io.h ****  * SERVICES; LOSS OF USE, DATA, OR PROFITS; OR BUSINESS INTERRUPTION) HOWEVER CAUSED AND ON ANY THE
  33:C:/Users/RGoncalves/Documents/GitHub/uControllers/XMC_Relax_Kit_Projects/NewHaven_Display/NewHaven_Display/Dave/Generated/DIGITAL_IO\digital_io.h ****  * WHETHER IN CONTRACT, STRICT LIABILITY,OR TORT (INCLUDING NEGLIGENCE OR OTHERWISE) ARISING IN ANY
  34:C:/Users/RGoncalves/Documents/GitHub/uControllers/XMC_Relax_Kit_Projects/NewHaven_Display/NewHaven_Display/Dave/Generated/DIGITAL_IO\digital_io.h ****  * USE OF THIS SOFTWARE, EVEN IF ADVISED OF THE POSSIBILITY OF SUCH DAMAGE.
  35:C:/Users/RGoncalves/Documents/GitHub/uControllers/XMC_Relax_Kit_Projects/NewHaven_Display/NewHaven_Display/Dave/Generated/DIGITAL_IO\digital_io.h ****  *
  36:C:/Users/RGoncalves/Documents/GitHub/uControllers/XMC_Relax_Kit_Projects/NewHaven_Display/NewHaven_Display/Dave/Generated/DIGITAL_IO\digital_io.h ****  * To improve the quality of the software, users are encouraged to share modifications, enhancement
  37:C:/Users/RGoncalves/Documents/GitHub/uControllers/XMC_Relax_Kit_Projects/NewHaven_Display/NewHaven_Display/Dave/Generated/DIGITAL_IO\digital_io.h ****  * with Infineon Technologies AG (dave@infineon.com).
  38:C:/Users/RGoncalves/Documents/GitHub/uControllers/XMC_Relax_Kit_Projects/NewHaven_Display/NewHaven_Display/Dave/Generated/DIGITAL_IO\digital_io.h ****  **************************************************************************************************
  39:C:/Users/RGoncalves/Documents/GitHub/uControllers/XMC_Relax_Kit_Projects/NewHaven_Display/NewHaven_Display/Dave/Generated/DIGITAL_IO\digital_io.h ****  *
  40:C:/Users/RGoncalves/Documents/GitHub/uControllers/XMC_Relax_Kit_Projects/NewHaven_Display/NewHaven_Display/Dave/Generated/DIGITAL_IO\digital_io.h ****  * Change History
  41:C:/Users/RGoncalves/Documents/GitHub/uControllers/XMC_Relax_Kit_Projects/NewHaven_Display/NewHaven_Display/Dave/Generated/DIGITAL_IO\digital_io.h ****  * --------------
  42:C:/Users/RGoncalves/Documents/GitHub/uControllers/XMC_Relax_Kit_Projects/NewHaven_Display/NewHaven_Display/Dave/Generated/DIGITAL_IO\digital_io.h ****  *
  43:C:/Users/RGoncalves/Documents/GitHub/uControllers/XMC_Relax_Kit_Projects/NewHaven_Display/NewHaven_Display/Dave/Generated/DIGITAL_IO\digital_io.h ****  * 2015-02-16
  44:C:/Users/RGoncalves/Documents/GitHub/uControllers/XMC_Relax_Kit_Projects/NewHaven_Display/NewHaven_Display/Dave/Generated/DIGITAL_IO\digital_io.h ****  *     - Initial version
  45:C:/Users/RGoncalves/Documents/GitHub/uControllers/XMC_Relax_Kit_Projects/NewHaven_Display/NewHaven_Display/Dave/Generated/DIGITAL_IO\digital_io.h ****  *
  46:C:/Users/RGoncalves/Documents/GitHub/uControllers/XMC_Relax_Kit_Projects/NewHaven_Display/NewHaven_Display/Dave/Generated/DIGITAL_IO\digital_io.h ****  * 2015-04-22
  47:C:/Users/RGoncalves/Documents/GitHub/uControllers/XMC_Relax_Kit_Projects/NewHaven_Display/NewHaven_Display/Dave/Generated/DIGITAL_IO\digital_io.h ****  *     - XMC_ASSERT is added in static inline functions.<br>
  48:C:/Users/RGoncalves/Documents/GitHub/uControllers/XMC_Relax_Kit_Projects/NewHaven_Display/NewHaven_Display/Dave/Generated/DIGITAL_IO\digital_io.h ****  *
  49:C:/Users/RGoncalves/Documents/GitHub/uControllers/XMC_Relax_Kit_Projects/NewHaven_Display/NewHaven_Display/Dave/Generated/DIGITAL_IO\digital_io.h ****  * 2015-06-20
  50:C:/Users/RGoncalves/Documents/GitHub/uControllers/XMC_Relax_Kit_Projects/NewHaven_Display/NewHaven_Display/Dave/Generated/DIGITAL_IO\digital_io.h ****  *     - Version check added for XMCLib dependency.<br>
  51:C:/Users/RGoncalves/Documents/GitHub/uControllers/XMC_Relax_Kit_Projects/NewHaven_Display/NewHaven_Display/Dave/Generated/DIGITAL_IO\digital_io.h ****  *
  52:C:/Users/RGoncalves/Documents/GitHub/uControllers/XMC_Relax_Kit_Projects/NewHaven_Display/NewHaven_Display/Dave/Generated/DIGITAL_IO\digital_io.h ****  * 2015-12-22
  53:C:/Users/RGoncalves/Documents/GitHub/uControllers/XMC_Relax_Kit_Projects/NewHaven_Display/NewHaven_Display/Dave/Generated/DIGITAL_IO\digital_io.h ****  *     - Added hardware controlled IO feature.
  54:C:/Users/RGoncalves/Documents/GitHub/uControllers/XMC_Relax_Kit_Projects/NewHaven_Display/NewHaven_Display/Dave/Generated/DIGITAL_IO\digital_io.h ****  * 2016-07-08:
  55:C:/Users/RGoncalves/Documents/GitHub/uControllers/XMC_Relax_Kit_Projects/NewHaven_Display/NewHaven_Display/Dave/Generated/DIGITAL_IO\digital_io.h ****  *     - Fixed incorrect case for an included header.<br>
  56:C:/Users/RGoncalves/Documents/GitHub/uControllers/XMC_Relax_Kit_Projects/NewHaven_Display/NewHaven_Display/Dave/Generated/DIGITAL_IO\digital_io.h ****  *
  57:C:/Users/RGoncalves/Documents/GitHub/uControllers/XMC_Relax_Kit_Projects/NewHaven_Display/NewHaven_Display/Dave/Generated/DIGITAL_IO\digital_io.h ****  * @endcond
  58:C:/Users/RGoncalves/Documents/GitHub/uControllers/XMC_Relax_Kit_Projects/NewHaven_Display/NewHaven_Display/Dave/Generated/DIGITAL_IO\digital_io.h ****  *
  59:C:/Users/RGoncalves/Documents/GitHub/uControllers/XMC_Relax_Kit_Projects/NewHaven_Display/NewHaven_Display/Dave/Generated/DIGITAL_IO\digital_io.h ****  */
  60:C:/Users/RGoncalves/Documents/GitHub/uControllers/XMC_Relax_Kit_Projects/NewHaven_Display/NewHaven_Display/Dave/Generated/DIGITAL_IO\digital_io.h **** 
  61:C:/Users/RGoncalves/Documents/GitHub/uControllers/XMC_Relax_Kit_Projects/NewHaven_Display/NewHaven_Display/Dave/Generated/DIGITAL_IO\digital_io.h **** /**************************************************************************************************
  62:C:/Users/RGoncalves/Documents/GitHub/uControllers/XMC_Relax_Kit_Projects/NewHaven_Display/NewHaven_Display/Dave/Generated/DIGITAL_IO\digital_io.h ****  * HEADER FILES
  63:C:/Users/RGoncalves/Documents/GitHub/uControllers/XMC_Relax_Kit_Projects/NewHaven_Display/NewHaven_Display/Dave/Generated/DIGITAL_IO\digital_io.h ****  **************************************************************************************************
  64:C:/Users/RGoncalves/Documents/GitHub/uControllers/XMC_Relax_Kit_Projects/NewHaven_Display/NewHaven_Display/Dave/Generated/DIGITAL_IO\digital_io.h **** 
  65:C:/Users/RGoncalves/Documents/GitHub/uControllers/XMC_Relax_Kit_Projects/NewHaven_Display/NewHaven_Display/Dave/Generated/DIGITAL_IO\digital_io.h **** #ifndef DIGITAL_IO_H
  66:C:/Users/RGoncalves/Documents/GitHub/uControllers/XMC_Relax_Kit_Projects/NewHaven_Display/NewHaven_Display/Dave/Generated/DIGITAL_IO\digital_io.h **** #define DIGITAL_IO_H
  67:C:/Users/RGoncalves/Documents/GitHub/uControllers/XMC_Relax_Kit_Projects/NewHaven_Display/NewHaven_Display/Dave/Generated/DIGITAL_IO\digital_io.h **** 
  68:C:/Users/RGoncalves/Documents/GitHub/uControllers/XMC_Relax_Kit_Projects/NewHaven_Display/NewHaven_Display/Dave/Generated/DIGITAL_IO\digital_io.h **** #include <xmc_gpio.h>
  69:C:/Users/RGoncalves/Documents/GitHub/uControllers/XMC_Relax_Kit_Projects/NewHaven_Display/NewHaven_Display/Dave/Generated/DIGITAL_IO\digital_io.h **** #include <DAVE_Common.h>
  70:C:/Users/RGoncalves/Documents/GitHub/uControllers/XMC_Relax_Kit_Projects/NewHaven_Display/NewHaven_Display/Dave/Generated/DIGITAL_IO\digital_io.h **** #include "digital_io_conf.h"
  71:C:/Users/RGoncalves/Documents/GitHub/uControllers/XMC_Relax_Kit_Projects/NewHaven_Display/NewHaven_Display/Dave/Generated/DIGITAL_IO\digital_io.h **** 
  72:C:/Users/RGoncalves/Documents/GitHub/uControllers/XMC_Relax_Kit_Projects/NewHaven_Display/NewHaven_Display/Dave/Generated/DIGITAL_IO\digital_io.h **** /**************************************************************************************************
  73:C:/Users/RGoncalves/Documents/GitHub/uControllers/XMC_Relax_Kit_Projects/NewHaven_Display/NewHaven_Display/Dave/Generated/DIGITAL_IO\digital_io.h ****  * MACROS
  74:C:/Users/RGoncalves/Documents/GitHub/uControllers/XMC_Relax_Kit_Projects/NewHaven_Display/NewHaven_Display/Dave/Generated/DIGITAL_IO\digital_io.h ****  **************************************************************************************************
  75:C:/Users/RGoncalves/Documents/GitHub/uControllers/XMC_Relax_Kit_Projects/NewHaven_Display/NewHaven_Display/Dave/Generated/DIGITAL_IO\digital_io.h **** #if (!((XMC_LIB_MAJOR_VERSION == 2U) && \
  76:C:/Users/RGoncalves/Documents/GitHub/uControllers/XMC_Relax_Kit_Projects/NewHaven_Display/NewHaven_Display/Dave/Generated/DIGITAL_IO\digital_io.h ****        (XMC_LIB_MINOR_VERSION >= 0U) && \
  77:C:/Users/RGoncalves/Documents/GitHub/uControllers/XMC_Relax_Kit_Projects/NewHaven_Display/NewHaven_Display/Dave/Generated/DIGITAL_IO\digital_io.h ****        (XMC_LIB_PATCH_VERSION >= 0U)))
  78:C:/Users/RGoncalves/Documents/GitHub/uControllers/XMC_Relax_Kit_Projects/NewHaven_Display/NewHaven_Display/Dave/Generated/DIGITAL_IO\digital_io.h **** #error "DIGITAL_IO requires XMC Peripheral Library v2.0.0 or higher"
  79:C:/Users/RGoncalves/Documents/GitHub/uControllers/XMC_Relax_Kit_Projects/NewHaven_Display/NewHaven_Display/Dave/Generated/DIGITAL_IO\digital_io.h **** #endif
  80:C:/Users/RGoncalves/Documents/GitHub/uControllers/XMC_Relax_Kit_Projects/NewHaven_Display/NewHaven_Display/Dave/Generated/DIGITAL_IO\digital_io.h **** 
  81:C:/Users/RGoncalves/Documents/GitHub/uControllers/XMC_Relax_Kit_Projects/NewHaven_Display/NewHaven_Display/Dave/Generated/DIGITAL_IO\digital_io.h ****  /*************************************************************************************************
  82:C:/Users/RGoncalves/Documents/GitHub/uControllers/XMC_Relax_Kit_Projects/NewHaven_Display/NewHaven_Display/Dave/Generated/DIGITAL_IO\digital_io.h ****  * ENUMS
  83:C:/Users/RGoncalves/Documents/GitHub/uControllers/XMC_Relax_Kit_Projects/NewHaven_Display/NewHaven_Display/Dave/Generated/DIGITAL_IO\digital_io.h ****  **************************************************************************************************
  84:C:/Users/RGoncalves/Documents/GitHub/uControllers/XMC_Relax_Kit_Projects/NewHaven_Display/NewHaven_Display/Dave/Generated/DIGITAL_IO\digital_io.h **** 
  85:C:/Users/RGoncalves/Documents/GitHub/uControllers/XMC_Relax_Kit_Projects/NewHaven_Display/NewHaven_Display/Dave/Generated/DIGITAL_IO\digital_io.h **** /**
  86:C:/Users/RGoncalves/Documents/GitHub/uControllers/XMC_Relax_Kit_Projects/NewHaven_Display/NewHaven_Display/Dave/Generated/DIGITAL_IO\digital_io.h **** * @ingroup DIGITAL_IO_enumerations
  87:C:/Users/RGoncalves/Documents/GitHub/uControllers/XMC_Relax_Kit_Projects/NewHaven_Display/NewHaven_Display/Dave/Generated/DIGITAL_IO\digital_io.h **** * @{
  88:C:/Users/RGoncalves/Documents/GitHub/uControllers/XMC_Relax_Kit_Projects/NewHaven_Display/NewHaven_Display/Dave/Generated/DIGITAL_IO\digital_io.h **** */
  89:C:/Users/RGoncalves/Documents/GitHub/uControllers/XMC_Relax_Kit_Projects/NewHaven_Display/NewHaven_Display/Dave/Generated/DIGITAL_IO\digital_io.h **** 
  90:C:/Users/RGoncalves/Documents/GitHub/uControllers/XMC_Relax_Kit_Projects/NewHaven_Display/NewHaven_Display/Dave/Generated/DIGITAL_IO\digital_io.h **** /**
  91:C:/Users/RGoncalves/Documents/GitHub/uControllers/XMC_Relax_Kit_Projects/NewHaven_Display/NewHaven_Display/Dave/Generated/DIGITAL_IO\digital_io.h **** * @brief Initialization status of DIGITAL_IO APP.
  92:C:/Users/RGoncalves/Documents/GitHub/uControllers/XMC_Relax_Kit_Projects/NewHaven_Display/NewHaven_Display/Dave/Generated/DIGITAL_IO\digital_io.h **** */
  93:C:/Users/RGoncalves/Documents/GitHub/uControllers/XMC_Relax_Kit_Projects/NewHaven_Display/NewHaven_Display/Dave/Generated/DIGITAL_IO\digital_io.h **** typedef enum DIGITAL_IO_STATUS
  94:C:/Users/RGoncalves/Documents/GitHub/uControllers/XMC_Relax_Kit_Projects/NewHaven_Display/NewHaven_Display/Dave/Generated/DIGITAL_IO\digital_io.h **** {
  95:C:/Users/RGoncalves/Documents/GitHub/uControllers/XMC_Relax_Kit_Projects/NewHaven_Display/NewHaven_Display/Dave/Generated/DIGITAL_IO\digital_io.h ****   DIGITAL_IO_STATUS_OK = 0U,/**< 0=Status OK */
  96:C:/Users/RGoncalves/Documents/GitHub/uControllers/XMC_Relax_Kit_Projects/NewHaven_Display/NewHaven_Display/Dave/Generated/DIGITAL_IO\digital_io.h ****   DIGITAL_IO_STATUS_FAILURE = 1U/**< 1=Status Failed */
  97:C:/Users/RGoncalves/Documents/GitHub/uControllers/XMC_Relax_Kit_Projects/NewHaven_Display/NewHaven_Display/Dave/Generated/DIGITAL_IO\digital_io.h **** } DIGITAL_IO_STATUS_t;
  98:C:/Users/RGoncalves/Documents/GitHub/uControllers/XMC_Relax_Kit_Projects/NewHaven_Display/NewHaven_Display/Dave/Generated/DIGITAL_IO\digital_io.h **** 
  99:C:/Users/RGoncalves/Documents/GitHub/uControllers/XMC_Relax_Kit_Projects/NewHaven_Display/NewHaven_Display/Dave/Generated/DIGITAL_IO\digital_io.h **** /**
 100:C:/Users/RGoncalves/Documents/GitHub/uControllers/XMC_Relax_Kit_Projects/NewHaven_Display/NewHaven_Display/Dave/Generated/DIGITAL_IO\digital_io.h **** * @}
 101:C:/Users/RGoncalves/Documents/GitHub/uControllers/XMC_Relax_Kit_Projects/NewHaven_Display/NewHaven_Display/Dave/Generated/DIGITAL_IO\digital_io.h **** */
 102:C:/Users/RGoncalves/Documents/GitHub/uControllers/XMC_Relax_Kit_Projects/NewHaven_Display/NewHaven_Display/Dave/Generated/DIGITAL_IO\digital_io.h **** 
 103:C:/Users/RGoncalves/Documents/GitHub/uControllers/XMC_Relax_Kit_Projects/NewHaven_Display/NewHaven_Display/Dave/Generated/DIGITAL_IO\digital_io.h **** /**************************************************************************************************
 104:C:/Users/RGoncalves/Documents/GitHub/uControllers/XMC_Relax_Kit_Projects/NewHaven_Display/NewHaven_Display/Dave/Generated/DIGITAL_IO\digital_io.h ****  * DATA STRUCTURES
 105:C:/Users/RGoncalves/Documents/GitHub/uControllers/XMC_Relax_Kit_Projects/NewHaven_Display/NewHaven_Display/Dave/Generated/DIGITAL_IO\digital_io.h ****  **************************************************************************************************
 106:C:/Users/RGoncalves/Documents/GitHub/uControllers/XMC_Relax_Kit_Projects/NewHaven_Display/NewHaven_Display/Dave/Generated/DIGITAL_IO\digital_io.h **** /**
 107:C:/Users/RGoncalves/Documents/GitHub/uControllers/XMC_Relax_Kit_Projects/NewHaven_Display/NewHaven_Display/Dave/Generated/DIGITAL_IO\digital_io.h **** * @ingroup DIGITAL_IO_datastructures
 108:C:/Users/RGoncalves/Documents/GitHub/uControllers/XMC_Relax_Kit_Projects/NewHaven_Display/NewHaven_Display/Dave/Generated/DIGITAL_IO\digital_io.h **** * @{
 109:C:/Users/RGoncalves/Documents/GitHub/uControllers/XMC_Relax_Kit_Projects/NewHaven_Display/NewHaven_Display/Dave/Generated/DIGITAL_IO\digital_io.h **** */
 110:C:/Users/RGoncalves/Documents/GitHub/uControllers/XMC_Relax_Kit_Projects/NewHaven_Display/NewHaven_Display/Dave/Generated/DIGITAL_IO\digital_io.h **** 
 111:C:/Users/RGoncalves/Documents/GitHub/uControllers/XMC_Relax_Kit_Projects/NewHaven_Display/NewHaven_Display/Dave/Generated/DIGITAL_IO\digital_io.h **** /**
 112:C:/Users/RGoncalves/Documents/GitHub/uControllers/XMC_Relax_Kit_Projects/NewHaven_Display/NewHaven_Display/Dave/Generated/DIGITAL_IO\digital_io.h **** * @brief Initialization data structure of DIGITAL_IO APP
 113:C:/Users/RGoncalves/Documents/GitHub/uControllers/XMC_Relax_Kit_Projects/NewHaven_Display/NewHaven_Display/Dave/Generated/DIGITAL_IO\digital_io.h **** */
 114:C:/Users/RGoncalves/Documents/GitHub/uControllers/XMC_Relax_Kit_Projects/NewHaven_Display/NewHaven_Display/Dave/Generated/DIGITAL_IO\digital_io.h **** typedef struct DIGITAL_IO
 115:C:/Users/RGoncalves/Documents/GitHub/uControllers/XMC_Relax_Kit_Projects/NewHaven_Display/NewHaven_Display/Dave/Generated/DIGITAL_IO\digital_io.h **** {
 116:C:/Users/RGoncalves/Documents/GitHub/uControllers/XMC_Relax_Kit_Projects/NewHaven_Display/NewHaven_Display/Dave/Generated/DIGITAL_IO\digital_io.h ****   XMC_GPIO_PORT_t *const gpio_port;             /**< port number */
 117:C:/Users/RGoncalves/Documents/GitHub/uControllers/XMC_Relax_Kit_Projects/NewHaven_Display/NewHaven_Display/Dave/Generated/DIGITAL_IO\digital_io.h ****   const XMC_GPIO_CONFIG_t gpio_config;          /**< mode, initial output level and pad driver stre
 118:C:/Users/RGoncalves/Documents/GitHub/uControllers/XMC_Relax_Kit_Projects/NewHaven_Display/NewHaven_Display/Dave/Generated/DIGITAL_IO\digital_io.h ****   const uint8_t gpio_pin;                       /**< pin number */
 119:C:/Users/RGoncalves/Documents/GitHub/uControllers/XMC_Relax_Kit_Projects/NewHaven_Display/NewHaven_Display/Dave/Generated/DIGITAL_IO\digital_io.h ****   const XMC_GPIO_HWCTRL_t hwctrl;               /**< Hardware port control */
 120:C:/Users/RGoncalves/Documents/GitHub/uControllers/XMC_Relax_Kit_Projects/NewHaven_Display/NewHaven_Display/Dave/Generated/DIGITAL_IO\digital_io.h **** } DIGITAL_IO_t;
 121:C:/Users/RGoncalves/Documents/GitHub/uControllers/XMC_Relax_Kit_Projects/NewHaven_Display/NewHaven_Display/Dave/Generated/DIGITAL_IO\digital_io.h **** 
 122:C:/Users/RGoncalves/Documents/GitHub/uControllers/XMC_Relax_Kit_Projects/NewHaven_Display/NewHaven_Display/Dave/Generated/DIGITAL_IO\digital_io.h **** 
 123:C:/Users/RGoncalves/Documents/GitHub/uControllers/XMC_Relax_Kit_Projects/NewHaven_Display/NewHaven_Display/Dave/Generated/DIGITAL_IO\digital_io.h **** /**
 124:C:/Users/RGoncalves/Documents/GitHub/uControllers/XMC_Relax_Kit_Projects/NewHaven_Display/NewHaven_Display/Dave/Generated/DIGITAL_IO\digital_io.h **** * @}
 125:C:/Users/RGoncalves/Documents/GitHub/uControllers/XMC_Relax_Kit_Projects/NewHaven_Display/NewHaven_Display/Dave/Generated/DIGITAL_IO\digital_io.h **** */
 126:C:/Users/RGoncalves/Documents/GitHub/uControllers/XMC_Relax_Kit_Projects/NewHaven_Display/NewHaven_Display/Dave/Generated/DIGITAL_IO\digital_io.h **** 
 127:C:/Users/RGoncalves/Documents/GitHub/uControllers/XMC_Relax_Kit_Projects/NewHaven_Display/NewHaven_Display/Dave/Generated/DIGITAL_IO\digital_io.h **** 
 128:C:/Users/RGoncalves/Documents/GitHub/uControllers/XMC_Relax_Kit_Projects/NewHaven_Display/NewHaven_Display/Dave/Generated/DIGITAL_IO\digital_io.h **** /**************************************************************************************************
 129:C:/Users/RGoncalves/Documents/GitHub/uControllers/XMC_Relax_Kit_Projects/NewHaven_Display/NewHaven_Display/Dave/Generated/DIGITAL_IO\digital_io.h ****  * API Prototypes
 130:C:/Users/RGoncalves/Documents/GitHub/uControllers/XMC_Relax_Kit_Projects/NewHaven_Display/NewHaven_Display/Dave/Generated/DIGITAL_IO\digital_io.h ****  **************************************************************************************************
 131:C:/Users/RGoncalves/Documents/GitHub/uControllers/XMC_Relax_Kit_Projects/NewHaven_Display/NewHaven_Display/Dave/Generated/DIGITAL_IO\digital_io.h **** 
 132:C:/Users/RGoncalves/Documents/GitHub/uControllers/XMC_Relax_Kit_Projects/NewHaven_Display/NewHaven_Display/Dave/Generated/DIGITAL_IO\digital_io.h **** 
 133:C:/Users/RGoncalves/Documents/GitHub/uControllers/XMC_Relax_Kit_Projects/NewHaven_Display/NewHaven_Display/Dave/Generated/DIGITAL_IO\digital_io.h **** #ifdef __cplusplus
 134:C:/Users/RGoncalves/Documents/GitHub/uControllers/XMC_Relax_Kit_Projects/NewHaven_Display/NewHaven_Display/Dave/Generated/DIGITAL_IO\digital_io.h **** extern "C" {
 135:C:/Users/RGoncalves/Documents/GitHub/uControllers/XMC_Relax_Kit_Projects/NewHaven_Display/NewHaven_Display/Dave/Generated/DIGITAL_IO\digital_io.h **** #endif
 136:C:/Users/RGoncalves/Documents/GitHub/uControllers/XMC_Relax_Kit_Projects/NewHaven_Display/NewHaven_Display/Dave/Generated/DIGITAL_IO\digital_io.h **** 
 137:C:/Users/RGoncalves/Documents/GitHub/uControllers/XMC_Relax_Kit_Projects/NewHaven_Display/NewHaven_Display/Dave/Generated/DIGITAL_IO\digital_io.h **** /**
 138:C:/Users/RGoncalves/Documents/GitHub/uControllers/XMC_Relax_Kit_Projects/NewHaven_Display/NewHaven_Display/Dave/Generated/DIGITAL_IO\digital_io.h **** * @ingroup DIGITAL_IO_apidoc
 139:C:/Users/RGoncalves/Documents/GitHub/uControllers/XMC_Relax_Kit_Projects/NewHaven_Display/NewHaven_Display/Dave/Generated/DIGITAL_IO\digital_io.h **** * @{
 140:C:/Users/RGoncalves/Documents/GitHub/uControllers/XMC_Relax_Kit_Projects/NewHaven_Display/NewHaven_Display/Dave/Generated/DIGITAL_IO\digital_io.h **** */
 141:C:/Users/RGoncalves/Documents/GitHub/uControllers/XMC_Relax_Kit_Projects/NewHaven_Display/NewHaven_Display/Dave/Generated/DIGITAL_IO\digital_io.h **** 
 142:C:/Users/RGoncalves/Documents/GitHub/uControllers/XMC_Relax_Kit_Projects/NewHaven_Display/NewHaven_Display/Dave/Generated/DIGITAL_IO\digital_io.h **** 
 143:C:/Users/RGoncalves/Documents/GitHub/uControllers/XMC_Relax_Kit_Projects/NewHaven_Display/NewHaven_Display/Dave/Generated/DIGITAL_IO\digital_io.h **** 
 144:C:/Users/RGoncalves/Documents/GitHub/uControllers/XMC_Relax_Kit_Projects/NewHaven_Display/NewHaven_Display/Dave/Generated/DIGITAL_IO\digital_io.h **** /**
 145:C:/Users/RGoncalves/Documents/GitHub/uControllers/XMC_Relax_Kit_Projects/NewHaven_Display/NewHaven_Display/Dave/Generated/DIGITAL_IO\digital_io.h **** * @brief Get DIGITAL_IO APP version
 146:C:/Users/RGoncalves/Documents/GitHub/uControllers/XMC_Relax_Kit_Projects/NewHaven_Display/NewHaven_Display/Dave/Generated/DIGITAL_IO\digital_io.h **** * @return DAVE_APP_VERSION_t APP version information (major, minor and patch number)
 147:C:/Users/RGoncalves/Documents/GitHub/uControllers/XMC_Relax_Kit_Projects/NewHaven_Display/NewHaven_Display/Dave/Generated/DIGITAL_IO\digital_io.h **** *
 148:C:/Users/RGoncalves/Documents/GitHub/uControllers/XMC_Relax_Kit_Projects/NewHaven_Display/NewHaven_Display/Dave/Generated/DIGITAL_IO\digital_io.h **** * \par<b>Description: </b><br>
 149:C:/Users/RGoncalves/Documents/GitHub/uControllers/XMC_Relax_Kit_Projects/NewHaven_Display/NewHaven_Display/Dave/Generated/DIGITAL_IO\digital_io.h **** * The function can be used to check application software compatibility with a
 150:C:/Users/RGoncalves/Documents/GitHub/uControllers/XMC_Relax_Kit_Projects/NewHaven_Display/NewHaven_Display/Dave/Generated/DIGITAL_IO\digital_io.h **** * specific version of the APP.
 151:C:/Users/RGoncalves/Documents/GitHub/uControllers/XMC_Relax_Kit_Projects/NewHaven_Display/NewHaven_Display/Dave/Generated/DIGITAL_IO\digital_io.h **** *
 152:C:/Users/RGoncalves/Documents/GitHub/uControllers/XMC_Relax_Kit_Projects/NewHaven_Display/NewHaven_Display/Dave/Generated/DIGITAL_IO\digital_io.h **** * Example Usage:
 153:C:/Users/RGoncalves/Documents/GitHub/uControllers/XMC_Relax_Kit_Projects/NewHaven_Display/NewHaven_Display/Dave/Generated/DIGITAL_IO\digital_io.h **** *
 154:C:/Users/RGoncalves/Documents/GitHub/uControllers/XMC_Relax_Kit_Projects/NewHaven_Display/NewHaven_Display/Dave/Generated/DIGITAL_IO\digital_io.h **** * @code
 155:C:/Users/RGoncalves/Documents/GitHub/uControllers/XMC_Relax_Kit_Projects/NewHaven_Display/NewHaven_Display/Dave/Generated/DIGITAL_IO\digital_io.h **** * #include <DAVE.h>
 156:C:/Users/RGoncalves/Documents/GitHub/uControllers/XMC_Relax_Kit_Projects/NewHaven_Display/NewHaven_Display/Dave/Generated/DIGITAL_IO\digital_io.h **** *
 157:C:/Users/RGoncalves/Documents/GitHub/uControllers/XMC_Relax_Kit_Projects/NewHaven_Display/NewHaven_Display/Dave/Generated/DIGITAL_IO\digital_io.h **** * int main(void)
 158:C:/Users/RGoncalves/Documents/GitHub/uControllers/XMC_Relax_Kit_Projects/NewHaven_Display/NewHaven_Display/Dave/Generated/DIGITAL_IO\digital_io.h **** * {
 159:C:/Users/RGoncalves/Documents/GitHub/uControllers/XMC_Relax_Kit_Projects/NewHaven_Display/NewHaven_Display/Dave/Generated/DIGITAL_IO\digital_io.h **** *   DAVE_STATUS_t init_status;
 160:C:/Users/RGoncalves/Documents/GitHub/uControllers/XMC_Relax_Kit_Projects/NewHaven_Display/NewHaven_Display/Dave/Generated/DIGITAL_IO\digital_io.h **** *   DAVE_APP_VERSION_t version;
 161:C:/Users/RGoncalves/Documents/GitHub/uControllers/XMC_Relax_Kit_Projects/NewHaven_Display/NewHaven_Display/Dave/Generated/DIGITAL_IO\digital_io.h **** *
 162:C:/Users/RGoncalves/Documents/GitHub/uControllers/XMC_Relax_Kit_Projects/NewHaven_Display/NewHaven_Display/Dave/Generated/DIGITAL_IO\digital_io.h **** *   // Initialize DIGITAL_IO APP:
 163:C:/Users/RGoncalves/Documents/GitHub/uControllers/XMC_Relax_Kit_Projects/NewHaven_Display/NewHaven_Display/Dave/Generated/DIGITAL_IO\digital_io.h **** *   // DIGITAL_IO_Init() is called from within DAVE_Init().
 164:C:/Users/RGoncalves/Documents/GitHub/uControllers/XMC_Relax_Kit_Projects/NewHaven_Display/NewHaven_Display/Dave/Generated/DIGITAL_IO\digital_io.h **** *   init_status = DAVE_Init();
 165:C:/Users/RGoncalves/Documents/GitHub/uControllers/XMC_Relax_Kit_Projects/NewHaven_Display/NewHaven_Display/Dave/Generated/DIGITAL_IO\digital_io.h **** *   if(init_status == DAVE_STATUS_SUCCESS)
 166:C:/Users/RGoncalves/Documents/GitHub/uControllers/XMC_Relax_Kit_Projects/NewHaven_Display/NewHaven_Display/Dave/Generated/DIGITAL_IO\digital_io.h **** *   {
 167:C:/Users/RGoncalves/Documents/GitHub/uControllers/XMC_Relax_Kit_Projects/NewHaven_Display/NewHaven_Display/Dave/Generated/DIGITAL_IO\digital_io.h **** *     version = DIGITAL_IO_GetAppVersion();
 168:C:/Users/RGoncalves/Documents/GitHub/uControllers/XMC_Relax_Kit_Projects/NewHaven_Display/NewHaven_Display/Dave/Generated/DIGITAL_IO\digital_io.h **** *     if (version.major != 4U) {
 169:C:/Users/RGoncalves/Documents/GitHub/uControllers/XMC_Relax_Kit_Projects/NewHaven_Display/NewHaven_Display/Dave/Generated/DIGITAL_IO\digital_io.h **** *     // Probably, not the right version.
 170:C:/Users/RGoncalves/Documents/GitHub/uControllers/XMC_Relax_Kit_Projects/NewHaven_Display/NewHaven_Display/Dave/Generated/DIGITAL_IO\digital_io.h **** *     }
 171:C:/Users/RGoncalves/Documents/GitHub/uControllers/XMC_Relax_Kit_Projects/NewHaven_Display/NewHaven_Display/Dave/Generated/DIGITAL_IO\digital_io.h **** *   }
 172:C:/Users/RGoncalves/Documents/GitHub/uControllers/XMC_Relax_Kit_Projects/NewHaven_Display/NewHaven_Display/Dave/Generated/DIGITAL_IO\digital_io.h **** *
 173:C:/Users/RGoncalves/Documents/GitHub/uControllers/XMC_Relax_Kit_Projects/NewHaven_Display/NewHaven_Display/Dave/Generated/DIGITAL_IO\digital_io.h **** *     // More code here
 174:C:/Users/RGoncalves/Documents/GitHub/uControllers/XMC_Relax_Kit_Projects/NewHaven_Display/NewHaven_Display/Dave/Generated/DIGITAL_IO\digital_io.h **** *     while(1) {
 175:C:/Users/RGoncalves/Documents/GitHub/uControllers/XMC_Relax_Kit_Projects/NewHaven_Display/NewHaven_Display/Dave/Generated/DIGITAL_IO\digital_io.h **** *
 176:C:/Users/RGoncalves/Documents/GitHub/uControllers/XMC_Relax_Kit_Projects/NewHaven_Display/NewHaven_Display/Dave/Generated/DIGITAL_IO\digital_io.h **** *     }
 177:C:/Users/RGoncalves/Documents/GitHub/uControllers/XMC_Relax_Kit_Projects/NewHaven_Display/NewHaven_Display/Dave/Generated/DIGITAL_IO\digital_io.h **** *     return (1);
 178:C:/Users/RGoncalves/Documents/GitHub/uControllers/XMC_Relax_Kit_Projects/NewHaven_Display/NewHaven_Display/Dave/Generated/DIGITAL_IO\digital_io.h **** *  }
 179:C:/Users/RGoncalves/Documents/GitHub/uControllers/XMC_Relax_Kit_Projects/NewHaven_Display/NewHaven_Display/Dave/Generated/DIGITAL_IO\digital_io.h **** * @endcode<BR>
 180:C:/Users/RGoncalves/Documents/GitHub/uControllers/XMC_Relax_Kit_Projects/NewHaven_Display/NewHaven_Display/Dave/Generated/DIGITAL_IO\digital_io.h **** */
 181:C:/Users/RGoncalves/Documents/GitHub/uControllers/XMC_Relax_Kit_Projects/NewHaven_Display/NewHaven_Display/Dave/Generated/DIGITAL_IO\digital_io.h **** 
 182:C:/Users/RGoncalves/Documents/GitHub/uControllers/XMC_Relax_Kit_Projects/NewHaven_Display/NewHaven_Display/Dave/Generated/DIGITAL_IO\digital_io.h **** DAVE_APP_VERSION_t DIGITAL_IO_GetAppVersion(void);
 183:C:/Users/RGoncalves/Documents/GitHub/uControllers/XMC_Relax_Kit_Projects/NewHaven_Display/NewHaven_Display/Dave/Generated/DIGITAL_IO\digital_io.h **** 
 184:C:/Users/RGoncalves/Documents/GitHub/uControllers/XMC_Relax_Kit_Projects/NewHaven_Display/NewHaven_Display/Dave/Generated/DIGITAL_IO\digital_io.h **** /**
 185:C:/Users/RGoncalves/Documents/GitHub/uControllers/XMC_Relax_Kit_Projects/NewHaven_Display/NewHaven_Display/Dave/Generated/DIGITAL_IO\digital_io.h **** *
 186:C:/Users/RGoncalves/Documents/GitHub/uControllers/XMC_Relax_Kit_Projects/NewHaven_Display/NewHaven_Display/Dave/Generated/DIGITAL_IO\digital_io.h **** * @brief Function to initialize the port pin as per UI settings.
 187:C:/Users/RGoncalves/Documents/GitHub/uControllers/XMC_Relax_Kit_Projects/NewHaven_Display/NewHaven_Display/Dave/Generated/DIGITAL_IO\digital_io.h **** * @param handler Pointer pointing to APP data structure. Refer @ref DIGITAL_IO_t for details.
 188:C:/Users/RGoncalves/Documents/GitHub/uControllers/XMC_Relax_Kit_Projects/NewHaven_Display/NewHaven_Display/Dave/Generated/DIGITAL_IO\digital_io.h **** * @return DIGITAL_IO_STATUS_t DIGITAL_IO APP status. Refer @ref DIGITAL_IO_STATUS_t structure for d
 189:C:/Users/RGoncalves/Documents/GitHub/uControllers/XMC_Relax_Kit_Projects/NewHaven_Display/NewHaven_Display/Dave/Generated/DIGITAL_IO\digital_io.h **** *
 190:C:/Users/RGoncalves/Documents/GitHub/uControllers/XMC_Relax_Kit_Projects/NewHaven_Display/NewHaven_Display/Dave/Generated/DIGITAL_IO\digital_io.h **** * \par<b>Description:</b><br>
 191:C:/Users/RGoncalves/Documents/GitHub/uControllers/XMC_Relax_Kit_Projects/NewHaven_Display/NewHaven_Display/Dave/Generated/DIGITAL_IO\digital_io.h **** * This function initializes GPIO port registers IOCR,PDISC,OMR,PDR/PHCR to configure pin direction,
 192:C:/Users/RGoncalves/Documents/GitHub/uControllers/XMC_Relax_Kit_Projects/NewHaven_Display/NewHaven_Display/Dave/Generated/DIGITAL_IO\digital_io.h **** * and pad driver strength/hysteresis.
 193:C:/Users/RGoncalves/Documents/GitHub/uControllers/XMC_Relax_Kit_Projects/NewHaven_Display/NewHaven_Display/Dave/Generated/DIGITAL_IO\digital_io.h **** *
 194:C:/Users/RGoncalves/Documents/GitHub/uControllers/XMC_Relax_Kit_Projects/NewHaven_Display/NewHaven_Display/Dave/Generated/DIGITAL_IO\digital_io.h **** * \par<b>Related APIs:</b><BR>
 195:C:/Users/RGoncalves/Documents/GitHub/uControllers/XMC_Relax_Kit_Projects/NewHaven_Display/NewHaven_Display/Dave/Generated/DIGITAL_IO\digital_io.h **** * None
 196:C:/Users/RGoncalves/Documents/GitHub/uControllers/XMC_Relax_Kit_Projects/NewHaven_Display/NewHaven_Display/Dave/Generated/DIGITAL_IO\digital_io.h **** *
 197:C:/Users/RGoncalves/Documents/GitHub/uControllers/XMC_Relax_Kit_Projects/NewHaven_Display/NewHaven_Display/Dave/Generated/DIGITAL_IO\digital_io.h **** * Example Usage:
 198:C:/Users/RGoncalves/Documents/GitHub/uControllers/XMC_Relax_Kit_Projects/NewHaven_Display/NewHaven_Display/Dave/Generated/DIGITAL_IO\digital_io.h **** * @code
 199:C:/Users/RGoncalves/Documents/GitHub/uControllers/XMC_Relax_Kit_Projects/NewHaven_Display/NewHaven_Display/Dave/Generated/DIGITAL_IO\digital_io.h **** * #include <DAVE.h>//Declarations from DAVE Code Generation (includes SFR declaration)
 200:C:/Users/RGoncalves/Documents/GitHub/uControllers/XMC_Relax_Kit_Projects/NewHaven_Display/NewHaven_Display/Dave/Generated/DIGITAL_IO\digital_io.h **** * int main(void)
 201:C:/Users/RGoncalves/Documents/GitHub/uControllers/XMC_Relax_Kit_Projects/NewHaven_Display/NewHaven_Display/Dave/Generated/DIGITAL_IO\digital_io.h **** * {
 202:C:/Users/RGoncalves/Documents/GitHub/uControllers/XMC_Relax_Kit_Projects/NewHaven_Display/NewHaven_Display/Dave/Generated/DIGITAL_IO\digital_io.h **** *   DAVE_STATUS_t status;
 203:C:/Users/RGoncalves/Documents/GitHub/uControllers/XMC_Relax_Kit_Projects/NewHaven_Display/NewHaven_Display/Dave/Generated/DIGITAL_IO\digital_io.h **** *   status = DAVE_Init();  //(DAVE_STATUS_t)DIGITAL_IO_Init(&DIGITAL_IO_0) is called within DAVE_In
 204:C:/Users/RGoncalves/Documents/GitHub/uControllers/XMC_Relax_Kit_Projects/NewHaven_Display/NewHaven_Display/Dave/Generated/DIGITAL_IO\digital_io.h **** *   if(status == DAVE_STATUS_SUCCESS)
 205:C:/Users/RGoncalves/Documents/GitHub/uControllers/XMC_Relax_Kit_Projects/NewHaven_Display/NewHaven_Display/Dave/Generated/DIGITAL_IO\digital_io.h **** *   {
 206:C:/Users/RGoncalves/Documents/GitHub/uControllers/XMC_Relax_Kit_Projects/NewHaven_Display/NewHaven_Display/Dave/Generated/DIGITAL_IO\digital_io.h **** *     XMC_DEBUG("DAVE Apps initialization success\n");
 207:C:/Users/RGoncalves/Documents/GitHub/uControllers/XMC_Relax_Kit_Projects/NewHaven_Display/NewHaven_Display/Dave/Generated/DIGITAL_IO\digital_io.h **** *   }
 208:C:/Users/RGoncalves/Documents/GitHub/uControllers/XMC_Relax_Kit_Projects/NewHaven_Display/NewHaven_Display/Dave/Generated/DIGITAL_IO\digital_io.h **** *   else
 209:C:/Users/RGoncalves/Documents/GitHub/uControllers/XMC_Relax_Kit_Projects/NewHaven_Display/NewHaven_Display/Dave/Generated/DIGITAL_IO\digital_io.h **** *   {
 210:C:/Users/RGoncalves/Documents/GitHub/uControllers/XMC_Relax_Kit_Projects/NewHaven_Display/NewHaven_Display/Dave/Generated/DIGITAL_IO\digital_io.h **** *     XMC_DEBUG(("DAVE Apps initialization failed with status %d\n", status));
 211:C:/Users/RGoncalves/Documents/GitHub/uControllers/XMC_Relax_Kit_Projects/NewHaven_Display/NewHaven_Display/Dave/Generated/DIGITAL_IO\digital_io.h **** *     while(1U)
 212:C:/Users/RGoncalves/Documents/GitHub/uControllers/XMC_Relax_Kit_Projects/NewHaven_Display/NewHaven_Display/Dave/Generated/DIGITAL_IO\digital_io.h **** *     {
 213:C:/Users/RGoncalves/Documents/GitHub/uControllers/XMC_Relax_Kit_Projects/NewHaven_Display/NewHaven_Display/Dave/Generated/DIGITAL_IO\digital_io.h **** *     }
 214:C:/Users/RGoncalves/Documents/GitHub/uControllers/XMC_Relax_Kit_Projects/NewHaven_Display/NewHaven_Display/Dave/Generated/DIGITAL_IO\digital_io.h **** *   }
 215:C:/Users/RGoncalves/Documents/GitHub/uControllers/XMC_Relax_Kit_Projects/NewHaven_Display/NewHaven_Display/Dave/Generated/DIGITAL_IO\digital_io.h **** *   //Placeholder for user application code. The while loop below can be replaced with user applica
 216:C:/Users/RGoncalves/Documents/GitHub/uControllers/XMC_Relax_Kit_Projects/NewHaven_Display/NewHaven_Display/Dave/Generated/DIGITAL_IO\digital_io.h **** *   while(1U)
 217:C:/Users/RGoncalves/Documents/GitHub/uControllers/XMC_Relax_Kit_Projects/NewHaven_Display/NewHaven_Display/Dave/Generated/DIGITAL_IO\digital_io.h **** *   {
 218:C:/Users/RGoncalves/Documents/GitHub/uControllers/XMC_Relax_Kit_Projects/NewHaven_Display/NewHaven_Display/Dave/Generated/DIGITAL_IO\digital_io.h **** *   }
 219:C:/Users/RGoncalves/Documents/GitHub/uControllers/XMC_Relax_Kit_Projects/NewHaven_Display/NewHaven_Display/Dave/Generated/DIGITAL_IO\digital_io.h **** *   return 1U;
 220:C:/Users/RGoncalves/Documents/GitHub/uControllers/XMC_Relax_Kit_Projects/NewHaven_Display/NewHaven_Display/Dave/Generated/DIGITAL_IO\digital_io.h **** *  }
 221:C:/Users/RGoncalves/Documents/GitHub/uControllers/XMC_Relax_Kit_Projects/NewHaven_Display/NewHaven_Display/Dave/Generated/DIGITAL_IO\digital_io.h **** *  @endcode
 222:C:/Users/RGoncalves/Documents/GitHub/uControllers/XMC_Relax_Kit_Projects/NewHaven_Display/NewHaven_Display/Dave/Generated/DIGITAL_IO\digital_io.h **** */
 223:C:/Users/RGoncalves/Documents/GitHub/uControllers/XMC_Relax_Kit_Projects/NewHaven_Display/NewHaven_Display/Dave/Generated/DIGITAL_IO\digital_io.h **** 
 224:C:/Users/RGoncalves/Documents/GitHub/uControllers/XMC_Relax_Kit_Projects/NewHaven_Display/NewHaven_Display/Dave/Generated/DIGITAL_IO\digital_io.h **** DIGITAL_IO_STATUS_t DIGITAL_IO_Init(const DIGITAL_IO_t *const handler);
 225:C:/Users/RGoncalves/Documents/GitHub/uControllers/XMC_Relax_Kit_Projects/NewHaven_Display/NewHaven_Display/Dave/Generated/DIGITAL_IO\digital_io.h **** 
 226:C:/Users/RGoncalves/Documents/GitHub/uControllers/XMC_Relax_Kit_Projects/NewHaven_Display/NewHaven_Display/Dave/Generated/DIGITAL_IO\digital_io.h **** /**
 227:C:/Users/RGoncalves/Documents/GitHub/uControllers/XMC_Relax_Kit_Projects/NewHaven_Display/NewHaven_Display/Dave/Generated/DIGITAL_IO\digital_io.h **** *
 228:C:/Users/RGoncalves/Documents/GitHub/uControllers/XMC_Relax_Kit_Projects/NewHaven_Display/NewHaven_Display/Dave/Generated/DIGITAL_IO\digital_io.h **** * @brief Function to set port pin high.
 229:C:/Users/RGoncalves/Documents/GitHub/uControllers/XMC_Relax_Kit_Projects/NewHaven_Display/NewHaven_Display/Dave/Generated/DIGITAL_IO\digital_io.h **** * @param handler Pointer pointing to APP data structure. Refer @ref DIGITAL_IO_t for details.
 230:C:/Users/RGoncalves/Documents/GitHub/uControllers/XMC_Relax_Kit_Projects/NewHaven_Display/NewHaven_Display/Dave/Generated/DIGITAL_IO\digital_io.h **** * @return None
 231:C:/Users/RGoncalves/Documents/GitHub/uControllers/XMC_Relax_Kit_Projects/NewHaven_Display/NewHaven_Display/Dave/Generated/DIGITAL_IO\digital_io.h **** *
 232:C:/Users/RGoncalves/Documents/GitHub/uControllers/XMC_Relax_Kit_Projects/NewHaven_Display/NewHaven_Display/Dave/Generated/DIGITAL_IO\digital_io.h **** * \par<b>Description:</b><br>
 233:C:/Users/RGoncalves/Documents/GitHub/uControllers/XMC_Relax_Kit_Projects/NewHaven_Display/NewHaven_Display/Dave/Generated/DIGITAL_IO\digital_io.h **** * This function configures port output modification register Pn_OMR, to make port pin to high level
 234:C:/Users/RGoncalves/Documents/GitHub/uControllers/XMC_Relax_Kit_Projects/NewHaven_Display/NewHaven_Display/Dave/Generated/DIGITAL_IO\digital_io.h **** *
 235:C:/Users/RGoncalves/Documents/GitHub/uControllers/XMC_Relax_Kit_Projects/NewHaven_Display/NewHaven_Display/Dave/Generated/DIGITAL_IO\digital_io.h **** * \par<b>Related APIs:</b><BR>
 236:C:/Users/RGoncalves/Documents/GitHub/uControllers/XMC_Relax_Kit_Projects/NewHaven_Display/NewHaven_Display/Dave/Generated/DIGITAL_IO\digital_io.h **** *  DIGITAL_IO_SetOutputLow()
 237:C:/Users/RGoncalves/Documents/GitHub/uControllers/XMC_Relax_Kit_Projects/NewHaven_Display/NewHaven_Display/Dave/Generated/DIGITAL_IO\digital_io.h **** *
 238:C:/Users/RGoncalves/Documents/GitHub/uControllers/XMC_Relax_Kit_Projects/NewHaven_Display/NewHaven_Display/Dave/Generated/DIGITAL_IO\digital_io.h **** * Example Usage:
 239:C:/Users/RGoncalves/Documents/GitHub/uControllers/XMC_Relax_Kit_Projects/NewHaven_Display/NewHaven_Display/Dave/Generated/DIGITAL_IO\digital_io.h **** * @code
 240:C:/Users/RGoncalves/Documents/GitHub/uControllers/XMC_Relax_Kit_Projects/NewHaven_Display/NewHaven_Display/Dave/Generated/DIGITAL_IO\digital_io.h **** * #include <DAVE.h>//Declarations from DAVE Code Generation (includes SFR declaration)
 241:C:/Users/RGoncalves/Documents/GitHub/uControllers/XMC_Relax_Kit_Projects/NewHaven_Display/NewHaven_Display/Dave/Generated/DIGITAL_IO\digital_io.h **** * int main(void)
 242:C:/Users/RGoncalves/Documents/GitHub/uControllers/XMC_Relax_Kit_Projects/NewHaven_Display/NewHaven_Display/Dave/Generated/DIGITAL_IO\digital_io.h **** * {
 243:C:/Users/RGoncalves/Documents/GitHub/uControllers/XMC_Relax_Kit_Projects/NewHaven_Display/NewHaven_Display/Dave/Generated/DIGITAL_IO\digital_io.h **** *   DAVE_STATUS_t status;
 244:C:/Users/RGoncalves/Documents/GitHub/uControllers/XMC_Relax_Kit_Projects/NewHaven_Display/NewHaven_Display/Dave/Generated/DIGITAL_IO\digital_io.h **** *   status = DAVE_Init();  //(DAVE_STATUS_t)DIGITAL_IO_Init(&DIGITAL_IO_0) is called within DAVE_In
 245:C:/Users/RGoncalves/Documents/GitHub/uControllers/XMC_Relax_Kit_Projects/NewHaven_Display/NewHaven_Display/Dave/Generated/DIGITAL_IO\digital_io.h **** *   if(status == DAVE_STATUS_SUCCESS)
 246:C:/Users/RGoncalves/Documents/GitHub/uControllers/XMC_Relax_Kit_Projects/NewHaven_Display/NewHaven_Display/Dave/Generated/DIGITAL_IO\digital_io.h **** *   {
 247:C:/Users/RGoncalves/Documents/GitHub/uControllers/XMC_Relax_Kit_Projects/NewHaven_Display/NewHaven_Display/Dave/Generated/DIGITAL_IO\digital_io.h **** *     XMC_DEBUG("DAVE Apps initialization success\n");
 248:C:/Users/RGoncalves/Documents/GitHub/uControllers/XMC_Relax_Kit_Projects/NewHaven_Display/NewHaven_Display/Dave/Generated/DIGITAL_IO\digital_io.h **** *   }
 249:C:/Users/RGoncalves/Documents/GitHub/uControllers/XMC_Relax_Kit_Projects/NewHaven_Display/NewHaven_Display/Dave/Generated/DIGITAL_IO\digital_io.h **** *   else
 250:C:/Users/RGoncalves/Documents/GitHub/uControllers/XMC_Relax_Kit_Projects/NewHaven_Display/NewHaven_Display/Dave/Generated/DIGITAL_IO\digital_io.h **** *   {
 251:C:/Users/RGoncalves/Documents/GitHub/uControllers/XMC_Relax_Kit_Projects/NewHaven_Display/NewHaven_Display/Dave/Generated/DIGITAL_IO\digital_io.h **** *     XMC_DEBUG(("DAVE Apps initialization failed with status %d\n", status));
 252:C:/Users/RGoncalves/Documents/GitHub/uControllers/XMC_Relax_Kit_Projects/NewHaven_Display/NewHaven_Display/Dave/Generated/DIGITAL_IO\digital_io.h **** *     while(1U)
 253:C:/Users/RGoncalves/Documents/GitHub/uControllers/XMC_Relax_Kit_Projects/NewHaven_Display/NewHaven_Display/Dave/Generated/DIGITAL_IO\digital_io.h **** *     {
 254:C:/Users/RGoncalves/Documents/GitHub/uControllers/XMC_Relax_Kit_Projects/NewHaven_Display/NewHaven_Display/Dave/Generated/DIGITAL_IO\digital_io.h **** *     }
 255:C:/Users/RGoncalves/Documents/GitHub/uControllers/XMC_Relax_Kit_Projects/NewHaven_Display/NewHaven_Display/Dave/Generated/DIGITAL_IO\digital_io.h **** *   }
 256:C:/Users/RGoncalves/Documents/GitHub/uControllers/XMC_Relax_Kit_Projects/NewHaven_Display/NewHaven_Display/Dave/Generated/DIGITAL_IO\digital_io.h **** *   //Placeholder for user application code. The while loop below can be replaced with user applica
 257:C:/Users/RGoncalves/Documents/GitHub/uControllers/XMC_Relax_Kit_Projects/NewHaven_Display/NewHaven_Display/Dave/Generated/DIGITAL_IO\digital_io.h **** *   DIGITAL_IO_SetOutputHigh(&DIGITAL_IO_0);
 258:C:/Users/RGoncalves/Documents/GitHub/uControllers/XMC_Relax_Kit_Projects/NewHaven_Display/NewHaven_Display/Dave/Generated/DIGITAL_IO\digital_io.h **** *   while(1U)
 259:C:/Users/RGoncalves/Documents/GitHub/uControllers/XMC_Relax_Kit_Projects/NewHaven_Display/NewHaven_Display/Dave/Generated/DIGITAL_IO\digital_io.h **** *   {
 260:C:/Users/RGoncalves/Documents/GitHub/uControllers/XMC_Relax_Kit_Projects/NewHaven_Display/NewHaven_Display/Dave/Generated/DIGITAL_IO\digital_io.h **** *     // Add application code here
 261:C:/Users/RGoncalves/Documents/GitHub/uControllers/XMC_Relax_Kit_Projects/NewHaven_Display/NewHaven_Display/Dave/Generated/DIGITAL_IO\digital_io.h **** *   }
 262:C:/Users/RGoncalves/Documents/GitHub/uControllers/XMC_Relax_Kit_Projects/NewHaven_Display/NewHaven_Display/Dave/Generated/DIGITAL_IO\digital_io.h **** *
 263:C:/Users/RGoncalves/Documents/GitHub/uControllers/XMC_Relax_Kit_Projects/NewHaven_Display/NewHaven_Display/Dave/Generated/DIGITAL_IO\digital_io.h **** *   return (1);
 264:C:/Users/RGoncalves/Documents/GitHub/uControllers/XMC_Relax_Kit_Projects/NewHaven_Display/NewHaven_Display/Dave/Generated/DIGITAL_IO\digital_io.h **** * }
 265:C:/Users/RGoncalves/Documents/GitHub/uControllers/XMC_Relax_Kit_Projects/NewHaven_Display/NewHaven_Display/Dave/Generated/DIGITAL_IO\digital_io.h **** *  @endcode
 266:C:/Users/RGoncalves/Documents/GitHub/uControllers/XMC_Relax_Kit_Projects/NewHaven_Display/NewHaven_Display/Dave/Generated/DIGITAL_IO\digital_io.h **** */
 267:C:/Users/RGoncalves/Documents/GitHub/uControllers/XMC_Relax_Kit_Projects/NewHaven_Display/NewHaven_Display/Dave/Generated/DIGITAL_IO\digital_io.h **** 
 268:C:/Users/RGoncalves/Documents/GitHub/uControllers/XMC_Relax_Kit_Projects/NewHaven_Display/NewHaven_Display/Dave/Generated/DIGITAL_IO\digital_io.h **** __STATIC_INLINE void DIGITAL_IO_SetOutputHigh(const DIGITAL_IO_t *const handler)
 269:C:/Users/RGoncalves/Documents/GitHub/uControllers/XMC_Relax_Kit_Projects/NewHaven_Display/NewHaven_Display/Dave/Generated/DIGITAL_IO\digital_io.h **** {
 122              	 .loc 2 269 0
 123              	 .cfi_startproc
 124              	 
 125              	 
 126 0000 80B5     	 push {r7,lr}
 127              	.LCFI12:
 128              	 .cfi_def_cfa_offset 8
 129              	 .cfi_offset 7,-8
 130              	 .cfi_offset 14,-4
 131 0002 82B0     	 sub sp,sp,#8
 132              	.LCFI13:
 133              	 .cfi_def_cfa_offset 16
 134 0004 00AF     	 add r7,sp,#0
 135              	.LCFI14:
 136              	 .cfi_def_cfa_register 7
 137 0006 7860     	 str r0,[r7,#4]
 270:C:/Users/RGoncalves/Documents/GitHub/uControllers/XMC_Relax_Kit_Projects/NewHaven_Display/NewHaven_Display/Dave/Generated/DIGITAL_IO\digital_io.h ****   XMC_ASSERT("DIGITAL_IO_SetOutputHigh: handler null pointer", handler != NULL);
 271:C:/Users/RGoncalves/Documents/GitHub/uControllers/XMC_Relax_Kit_Projects/NewHaven_Display/NewHaven_Display/Dave/Generated/DIGITAL_IO\digital_io.h ****   XMC_GPIO_SetOutputHigh(handler->gpio_port, handler->gpio_pin);
 138              	 .loc 2 271 0
 139 0008 7B68     	 ldr r3,[r7,#4]
 140 000a 1A68     	 ldr r2,[r3]
 141 000c 7B68     	 ldr r3,[r7,#4]
 142 000e 1B7C     	 ldrb r3,[r3,#16]
 143 0010 1046     	 mov r0,r2
 144 0012 1946     	 mov r1,r3
 145 0014 FFF7FEFF 	 bl XMC_GPIO_SetOutputHigh
 272:C:/Users/RGoncalves/Documents/GitHub/uControllers/XMC_Relax_Kit_Projects/NewHaven_Display/NewHaven_Display/Dave/Generated/DIGITAL_IO\digital_io.h **** }
 146              	 .loc 2 272 0
 147 0018 0837     	 adds r7,r7,#8
 148              	.LCFI15:
 149              	 .cfi_def_cfa_offset 8
 150 001a BD46     	 mov sp,r7
 151              	.LCFI16:
 152              	 .cfi_def_cfa_register 13
 153              	 
 154 001c 80BD     	 pop {r7,pc}
 155              	 .cfi_endproc
 156              	.LFE306:
 158 001e 00BF     	 .section .text.DIGITAL_IO_SetOutputLow,"ax",%progbits
 159              	 .align 2
 160              	 .thumb
 161              	 .thumb_func
 163              	DIGITAL_IO_SetOutputLow:
 164              	.LFB307:
 273:C:/Users/RGoncalves/Documents/GitHub/uControllers/XMC_Relax_Kit_Projects/NewHaven_Display/NewHaven_Display/Dave/Generated/DIGITAL_IO\digital_io.h **** 
 274:C:/Users/RGoncalves/Documents/GitHub/uControllers/XMC_Relax_Kit_Projects/NewHaven_Display/NewHaven_Display/Dave/Generated/DIGITAL_IO\digital_io.h **** /**
 275:C:/Users/RGoncalves/Documents/GitHub/uControllers/XMC_Relax_Kit_Projects/NewHaven_Display/NewHaven_Display/Dave/Generated/DIGITAL_IO\digital_io.h **** * @brief Function to reset port pin.
 276:C:/Users/RGoncalves/Documents/GitHub/uControllers/XMC_Relax_Kit_Projects/NewHaven_Display/NewHaven_Display/Dave/Generated/DIGITAL_IO\digital_io.h **** * @param handler Pointer pointing to APP data structure. Refer @ref DIGITAL_IO_t for details.
 277:C:/Users/RGoncalves/Documents/GitHub/uControllers/XMC_Relax_Kit_Projects/NewHaven_Display/NewHaven_Display/Dave/Generated/DIGITAL_IO\digital_io.h **** * @return None
 278:C:/Users/RGoncalves/Documents/GitHub/uControllers/XMC_Relax_Kit_Projects/NewHaven_Display/NewHaven_Display/Dave/Generated/DIGITAL_IO\digital_io.h **** *
 279:C:/Users/RGoncalves/Documents/GitHub/uControllers/XMC_Relax_Kit_Projects/NewHaven_Display/NewHaven_Display/Dave/Generated/DIGITAL_IO\digital_io.h **** * \par<b>Description:</b><br>
 280:C:/Users/RGoncalves/Documents/GitHub/uControllers/XMC_Relax_Kit_Projects/NewHaven_Display/NewHaven_Display/Dave/Generated/DIGITAL_IO\digital_io.h **** * This function configures port output modification register Pn_OMR, to make port pin to low level.
 281:C:/Users/RGoncalves/Documents/GitHub/uControllers/XMC_Relax_Kit_Projects/NewHaven_Display/NewHaven_Display/Dave/Generated/DIGITAL_IO\digital_io.h **** *
 282:C:/Users/RGoncalves/Documents/GitHub/uControllers/XMC_Relax_Kit_Projects/NewHaven_Display/NewHaven_Display/Dave/Generated/DIGITAL_IO\digital_io.h **** * \par<b>Related APIs:</b><BR>
 283:C:/Users/RGoncalves/Documents/GitHub/uControllers/XMC_Relax_Kit_Projects/NewHaven_Display/NewHaven_Display/Dave/Generated/DIGITAL_IO\digital_io.h **** * DIGITAL_IO_SetOutputHigh()
 284:C:/Users/RGoncalves/Documents/GitHub/uControllers/XMC_Relax_Kit_Projects/NewHaven_Display/NewHaven_Display/Dave/Generated/DIGITAL_IO\digital_io.h **** *
 285:C:/Users/RGoncalves/Documents/GitHub/uControllers/XMC_Relax_Kit_Projects/NewHaven_Display/NewHaven_Display/Dave/Generated/DIGITAL_IO\digital_io.h **** * Example Usage:
 286:C:/Users/RGoncalves/Documents/GitHub/uControllers/XMC_Relax_Kit_Projects/NewHaven_Display/NewHaven_Display/Dave/Generated/DIGITAL_IO\digital_io.h **** * @code
 287:C:/Users/RGoncalves/Documents/GitHub/uControllers/XMC_Relax_Kit_Projects/NewHaven_Display/NewHaven_Display/Dave/Generated/DIGITAL_IO\digital_io.h **** *  #include <DAVE.h>//Declarations from DAVE Code Generation (includes SFR declaration)
 288:C:/Users/RGoncalves/Documents/GitHub/uControllers/XMC_Relax_Kit_Projects/NewHaven_Display/NewHaven_Display/Dave/Generated/DIGITAL_IO\digital_io.h **** *  int main(void)
 289:C:/Users/RGoncalves/Documents/GitHub/uControllers/XMC_Relax_Kit_Projects/NewHaven_Display/NewHaven_Display/Dave/Generated/DIGITAL_IO\digital_io.h **** *  {
 290:C:/Users/RGoncalves/Documents/GitHub/uControllers/XMC_Relax_Kit_Projects/NewHaven_Display/NewHaven_Display/Dave/Generated/DIGITAL_IO\digital_io.h **** *    DAVE_STATUS_t status;
 291:C:/Users/RGoncalves/Documents/GitHub/uControllers/XMC_Relax_Kit_Projects/NewHaven_Display/NewHaven_Display/Dave/Generated/DIGITAL_IO\digital_io.h **** *    status = DAVE_Init();  //(DAVE_STATUS_t)DIGITAL_IO_Init(&DIGITAL_IO_0) is called within DAVE_I
 292:C:/Users/RGoncalves/Documents/GitHub/uControllers/XMC_Relax_Kit_Projects/NewHaven_Display/NewHaven_Display/Dave/Generated/DIGITAL_IO\digital_io.h **** *    if(status == DAVE_STATUS_SUCCESS)
 293:C:/Users/RGoncalves/Documents/GitHub/uControllers/XMC_Relax_Kit_Projects/NewHaven_Display/NewHaven_Display/Dave/Generated/DIGITAL_IO\digital_io.h **** *    {
 294:C:/Users/RGoncalves/Documents/GitHub/uControllers/XMC_Relax_Kit_Projects/NewHaven_Display/NewHaven_Display/Dave/Generated/DIGITAL_IO\digital_io.h **** *      XMC_DEBUG("DAVE Apps initialization success\n");
 295:C:/Users/RGoncalves/Documents/GitHub/uControllers/XMC_Relax_Kit_Projects/NewHaven_Display/NewHaven_Display/Dave/Generated/DIGITAL_IO\digital_io.h **** *    }
 296:C:/Users/RGoncalves/Documents/GitHub/uControllers/XMC_Relax_Kit_Projects/NewHaven_Display/NewHaven_Display/Dave/Generated/DIGITAL_IO\digital_io.h **** *    else
 297:C:/Users/RGoncalves/Documents/GitHub/uControllers/XMC_Relax_Kit_Projects/NewHaven_Display/NewHaven_Display/Dave/Generated/DIGITAL_IO\digital_io.h **** *    {
 298:C:/Users/RGoncalves/Documents/GitHub/uControllers/XMC_Relax_Kit_Projects/NewHaven_Display/NewHaven_Display/Dave/Generated/DIGITAL_IO\digital_io.h **** *      XMC_DEBUG(("DAVE Apps initialization failed with status %d\n", status));
 299:C:/Users/RGoncalves/Documents/GitHub/uControllers/XMC_Relax_Kit_Projects/NewHaven_Display/NewHaven_Display/Dave/Generated/DIGITAL_IO\digital_io.h **** *      while(1U)
 300:C:/Users/RGoncalves/Documents/GitHub/uControllers/XMC_Relax_Kit_Projects/NewHaven_Display/NewHaven_Display/Dave/Generated/DIGITAL_IO\digital_io.h **** *      {
 301:C:/Users/RGoncalves/Documents/GitHub/uControllers/XMC_Relax_Kit_Projects/NewHaven_Display/NewHaven_Display/Dave/Generated/DIGITAL_IO\digital_io.h **** *      }
 302:C:/Users/RGoncalves/Documents/GitHub/uControllers/XMC_Relax_Kit_Projects/NewHaven_Display/NewHaven_Display/Dave/Generated/DIGITAL_IO\digital_io.h **** *    }
 303:C:/Users/RGoncalves/Documents/GitHub/uControllers/XMC_Relax_Kit_Projects/NewHaven_Display/NewHaven_Display/Dave/Generated/DIGITAL_IO\digital_io.h **** *    //Placeholder for user application code. The while loop below can be replaced with user applic
 304:C:/Users/RGoncalves/Documents/GitHub/uControllers/XMC_Relax_Kit_Projects/NewHaven_Display/NewHaven_Display/Dave/Generated/DIGITAL_IO\digital_io.h **** *    DIGITAL_IO_SetOutputLow(&DIGITAL_IO_0);
 305:C:/Users/RGoncalves/Documents/GitHub/uControllers/XMC_Relax_Kit_Projects/NewHaven_Display/NewHaven_Display/Dave/Generated/DIGITAL_IO\digital_io.h **** *    while(1U)
 306:C:/Users/RGoncalves/Documents/GitHub/uControllers/XMC_Relax_Kit_Projects/NewHaven_Display/NewHaven_Display/Dave/Generated/DIGITAL_IO\digital_io.h **** *    {
 307:C:/Users/RGoncalves/Documents/GitHub/uControllers/XMC_Relax_Kit_Projects/NewHaven_Display/NewHaven_Display/Dave/Generated/DIGITAL_IO\digital_io.h **** *      // Add application code here
 308:C:/Users/RGoncalves/Documents/GitHub/uControllers/XMC_Relax_Kit_Projects/NewHaven_Display/NewHaven_Display/Dave/Generated/DIGITAL_IO\digital_io.h **** *    }
 309:C:/Users/RGoncalves/Documents/GitHub/uControllers/XMC_Relax_Kit_Projects/NewHaven_Display/NewHaven_Display/Dave/Generated/DIGITAL_IO\digital_io.h **** *
 310:C:/Users/RGoncalves/Documents/GitHub/uControllers/XMC_Relax_Kit_Projects/NewHaven_Display/NewHaven_Display/Dave/Generated/DIGITAL_IO\digital_io.h **** *   return (1);
 311:C:/Users/RGoncalves/Documents/GitHub/uControllers/XMC_Relax_Kit_Projects/NewHaven_Display/NewHaven_Display/Dave/Generated/DIGITAL_IO\digital_io.h **** * }
 312:C:/Users/RGoncalves/Documents/GitHub/uControllers/XMC_Relax_Kit_Projects/NewHaven_Display/NewHaven_Display/Dave/Generated/DIGITAL_IO\digital_io.h **** *  @endcode
 313:C:/Users/RGoncalves/Documents/GitHub/uControllers/XMC_Relax_Kit_Projects/NewHaven_Display/NewHaven_Display/Dave/Generated/DIGITAL_IO\digital_io.h **** */
 314:C:/Users/RGoncalves/Documents/GitHub/uControllers/XMC_Relax_Kit_Projects/NewHaven_Display/NewHaven_Display/Dave/Generated/DIGITAL_IO\digital_io.h **** 
 315:C:/Users/RGoncalves/Documents/GitHub/uControllers/XMC_Relax_Kit_Projects/NewHaven_Display/NewHaven_Display/Dave/Generated/DIGITAL_IO\digital_io.h **** __STATIC_INLINE void DIGITAL_IO_SetOutputLow(const DIGITAL_IO_t *const handler)
 316:C:/Users/RGoncalves/Documents/GitHub/uControllers/XMC_Relax_Kit_Projects/NewHaven_Display/NewHaven_Display/Dave/Generated/DIGITAL_IO\digital_io.h **** {
 165              	 .loc 2 316 0
 166              	 .cfi_startproc
 167              	 
 168              	 
 169 0000 80B5     	 push {r7,lr}
 170              	.LCFI17:
 171              	 .cfi_def_cfa_offset 8
 172              	 .cfi_offset 7,-8
 173              	 .cfi_offset 14,-4
 174 0002 82B0     	 sub sp,sp,#8
 175              	.LCFI18:
 176              	 .cfi_def_cfa_offset 16
 177 0004 00AF     	 add r7,sp,#0
 178              	.LCFI19:
 179              	 .cfi_def_cfa_register 7
 180 0006 7860     	 str r0,[r7,#4]
 317:C:/Users/RGoncalves/Documents/GitHub/uControllers/XMC_Relax_Kit_Projects/NewHaven_Display/NewHaven_Display/Dave/Generated/DIGITAL_IO\digital_io.h ****   XMC_ASSERT("DIGITAL_IO_SetOutputLow: handler null pointer", handler != NULL);
 318:C:/Users/RGoncalves/Documents/GitHub/uControllers/XMC_Relax_Kit_Projects/NewHaven_Display/NewHaven_Display/Dave/Generated/DIGITAL_IO\digital_io.h ****   XMC_GPIO_SetOutputLow(handler->gpio_port,handler->gpio_pin);
 181              	 .loc 2 318 0
 182 0008 7B68     	 ldr r3,[r7,#4]
 183 000a 1A68     	 ldr r2,[r3]
 184 000c 7B68     	 ldr r3,[r7,#4]
 185 000e 1B7C     	 ldrb r3,[r3,#16]
 186 0010 1046     	 mov r0,r2
 187 0012 1946     	 mov r1,r3
 188 0014 FFF7FEFF 	 bl XMC_GPIO_SetOutputLow
 319:C:/Users/RGoncalves/Documents/GitHub/uControllers/XMC_Relax_Kit_Projects/NewHaven_Display/NewHaven_Display/Dave/Generated/DIGITAL_IO\digital_io.h **** }
 189              	 .loc 2 319 0
 190 0018 0837     	 adds r7,r7,#8
 191              	.LCFI20:
 192              	 .cfi_def_cfa_offset 8
 193 001a BD46     	 mov sp,r7
 194              	.LCFI21:
 195              	 .cfi_def_cfa_register 13
 196              	 
 197 001c 80BD     	 pop {r7,pc}
 198              	 .cfi_endproc
 199              	.LFE307:
 201              	 .global Ascii_1
 202 001e 00BF     	 .section .data.Ascii_1,"aw",%progbits
 203              	 .align 2
 206              	Ascii_1:
 207 0000 00       	 .byte 0
 208 0001 00       	 .byte 0
 209 0002 00       	 .byte 0
 210 0003 00       	 .byte 0
 211 0004 00       	 .byte 0
 212 0005 00       	 .byte 0
 213 0006 00       	 .byte 0
 214 0007 4F       	 .byte 79
 215 0008 00       	 .byte 0
 216 0009 00       	 .byte 0
 217 000a 00       	 .byte 0
 218 000b 07       	 .byte 7
 219 000c 00       	 .byte 0
 220 000d 07       	 .byte 7
 221 000e 00       	 .byte 0
 222 000f 14       	 .byte 20
 223 0010 7F       	 .byte 127
 224 0011 14       	 .byte 20
 225 0012 7F       	 .byte 127
 226 0013 14       	 .byte 20
 227 0014 24       	 .byte 36
 228 0015 2A       	 .byte 42
 229 0016 7F       	 .byte 127
 230 0017 2A       	 .byte 42
 231 0018 12       	 .byte 18
 232 0019 23       	 .byte 35
 233 001a 13       	 .byte 19
 234 001b 08       	 .byte 8
 235 001c 64       	 .byte 100
 236 001d 62       	 .byte 98
 237 001e 36       	 .byte 54
 238 001f 49       	 .byte 73
 239 0020 55       	 .byte 85
 240 0021 22       	 .byte 34
 241 0022 50       	 .byte 80
 242 0023 00       	 .byte 0
 243 0024 05       	 .byte 5
 244 0025 03       	 .byte 3
 245 0026 00       	 .byte 0
 246 0027 00       	 .byte 0
 247 0028 00       	 .byte 0
 248 0029 1C       	 .byte 28
 249 002a 22       	 .byte 34
 250 002b 41       	 .byte 65
 251 002c 00       	 .byte 0
 252 002d 00       	 .byte 0
 253 002e 41       	 .byte 65
 254 002f 22       	 .byte 34
 255 0030 1C       	 .byte 28
 256 0031 00       	 .byte 0
 257 0032 14       	 .byte 20
 258 0033 08       	 .byte 8
 259 0034 3E       	 .byte 62
 260 0035 08       	 .byte 8
 261 0036 14       	 .byte 20
 262 0037 08       	 .byte 8
 263 0038 08       	 .byte 8
 264 0039 3E       	 .byte 62
 265 003a 08       	 .byte 8
 266 003b 08       	 .byte 8
 267 003c 00       	 .byte 0
 268 003d 50       	 .byte 80
 269 003e 30       	 .byte 48
 270 003f 00       	 .byte 0
 271 0040 00       	 .byte 0
 272 0041 08       	 .byte 8
 273 0042 08       	 .byte 8
 274 0043 08       	 .byte 8
 275 0044 08       	 .byte 8
 276 0045 08       	 .byte 8
 277 0046 00       	 .byte 0
 278 0047 60       	 .byte 96
 279 0048 60       	 .byte 96
 280 0049 00       	 .byte 0
 281 004a 00       	 .byte 0
 282 004b 20       	 .byte 32
 283 004c 10       	 .byte 16
 284 004d 08       	 .byte 8
 285 004e 04       	 .byte 4
 286 004f 02       	 .byte 2
 287 0050 3E       	 .byte 62
 288 0051 51       	 .byte 81
 289 0052 49       	 .byte 73
 290 0053 45       	 .byte 69
 291 0054 3E       	 .byte 62
 292 0055 00       	 .byte 0
 293 0056 42       	 .byte 66
 294 0057 7F       	 .byte 127
 295 0058 40       	 .byte 64
 296 0059 00       	 .byte 0
 297 005a 42       	 .byte 66
 298 005b 61       	 .byte 97
 299 005c 51       	 .byte 81
 300 005d 49       	 .byte 73
 301 005e 46       	 .byte 70
 302 005f 21       	 .byte 33
 303 0060 41       	 .byte 65
 304 0061 45       	 .byte 69
 305 0062 4B       	 .byte 75
 306 0063 31       	 .byte 49
 307 0064 18       	 .byte 24
 308 0065 14       	 .byte 20
 309 0066 12       	 .byte 18
 310 0067 7F       	 .byte 127
 311 0068 10       	 .byte 16
 312 0069 27       	 .byte 39
 313 006a 45       	 .byte 69
 314 006b 45       	 .byte 69
 315 006c 45       	 .byte 69
 316 006d 39       	 .byte 57
 317 006e 3C       	 .byte 60
 318 006f 4A       	 .byte 74
 319 0070 49       	 .byte 73
 320 0071 49       	 .byte 73
 321 0072 30       	 .byte 48
 322 0073 01       	 .byte 1
 323 0074 71       	 .byte 113
 324 0075 09       	 .byte 9
 325 0076 05       	 .byte 5
 326 0077 03       	 .byte 3
 327 0078 36       	 .byte 54
 328 0079 49       	 .byte 73
 329 007a 49       	 .byte 73
 330 007b 49       	 .byte 73
 331 007c 36       	 .byte 54
 332 007d 06       	 .byte 6
 333 007e 49       	 .byte 73
 334 007f 49       	 .byte 73
 335 0080 29       	 .byte 41
 336 0081 1E       	 .byte 30
 337 0082 00       	 .byte 0
 338 0083 36       	 .byte 54
 339 0084 36       	 .byte 54
 340 0085 00       	 .byte 0
 341 0086 00       	 .byte 0
 342 0087 00       	 .byte 0
 343 0088 56       	 .byte 86
 344 0089 36       	 .byte 54
 345 008a 00       	 .byte 0
 346 008b 00       	 .byte 0
 347 008c 08       	 .byte 8
 348 008d 14       	 .byte 20
 349 008e 22       	 .byte 34
 350 008f 41       	 .byte 65
 351 0090 00       	 .byte 0
 352 0091 14       	 .byte 20
 353 0092 14       	 .byte 20
 354 0093 14       	 .byte 20
 355 0094 14       	 .byte 20
 356 0095 14       	 .byte 20
 357 0096 00       	 .byte 0
 358 0097 41       	 .byte 65
 359 0098 22       	 .byte 34
 360 0099 14       	 .byte 20
 361 009a 08       	 .byte 8
 362 009b 02       	 .byte 2
 363 009c 01       	 .byte 1
 364 009d 51       	 .byte 81
 365 009e 09       	 .byte 9
 366 009f 06       	 .byte 6
 367 00a0 32       	 .byte 50
 368 00a1 49       	 .byte 73
 369 00a2 79       	 .byte 121
 370 00a3 41       	 .byte 65
 371 00a4 3E       	 .byte 62
 372 00a5 7E       	 .byte 126
 373 00a6 11       	 .byte 17
 374 00a7 11       	 .byte 17
 375 00a8 11       	 .byte 17
 376 00a9 7E       	 .byte 126
 377 00aa 7F       	 .byte 127
 378 00ab 49       	 .byte 73
 379 00ac 49       	 .byte 73
 380 00ad 49       	 .byte 73
 381 00ae 36       	 .byte 54
 382 00af 3E       	 .byte 62
 383 00b0 41       	 .byte 65
 384 00b1 41       	 .byte 65
 385 00b2 41       	 .byte 65
 386 00b3 22       	 .byte 34
 387 00b4 7F       	 .byte 127
 388 00b5 41       	 .byte 65
 389 00b6 41       	 .byte 65
 390 00b7 22       	 .byte 34
 391 00b8 1C       	 .byte 28
 392 00b9 7F       	 .byte 127
 393 00ba 49       	 .byte 73
 394 00bb 49       	 .byte 73
 395 00bc 49       	 .byte 73
 396 00bd 41       	 .byte 65
 397 00be 7F       	 .byte 127
 398 00bf 09       	 .byte 9
 399 00c0 09       	 .byte 9
 400 00c1 09       	 .byte 9
 401 00c2 01       	 .byte 1
 402 00c3 3E       	 .byte 62
 403 00c4 41       	 .byte 65
 404 00c5 49       	 .byte 73
 405 00c6 49       	 .byte 73
 406 00c7 7A       	 .byte 122
 407 00c8 7F       	 .byte 127
 408 00c9 08       	 .byte 8
 409 00ca 08       	 .byte 8
 410 00cb 08       	 .byte 8
 411 00cc 7F       	 .byte 127
 412 00cd 00       	 .byte 0
 413 00ce 41       	 .byte 65
 414 00cf 7F       	 .byte 127
 415 00d0 41       	 .byte 65
 416 00d1 00       	 .byte 0
 417 00d2 20       	 .byte 32
 418 00d3 40       	 .byte 64
 419 00d4 41       	 .byte 65
 420 00d5 3F       	 .byte 63
 421 00d6 01       	 .byte 1
 422 00d7 7F       	 .byte 127
 423 00d8 08       	 .byte 8
 424 00d9 14       	 .byte 20
 425 00da 22       	 .byte 34
 426 00db 41       	 .byte 65
 427 00dc 7F       	 .byte 127
 428 00dd 40       	 .byte 64
 429 00de 40       	 .byte 64
 430 00df 40       	 .byte 64
 431 00e0 40       	 .byte 64
 432 00e1 7F       	 .byte 127
 433 00e2 02       	 .byte 2
 434 00e3 0C       	 .byte 12
 435 00e4 02       	 .byte 2
 436 00e5 7F       	 .byte 127
 437 00e6 7F       	 .byte 127
 438 00e7 04       	 .byte 4
 439 00e8 08       	 .byte 8
 440 00e9 10       	 .byte 16
 441 00ea 7F       	 .byte 127
 442 00eb 3E       	 .byte 62
 443 00ec 41       	 .byte 65
 444 00ed 41       	 .byte 65
 445 00ee 41       	 .byte 65
 446 00ef 3E       	 .byte 62
 447 00f0 7F       	 .byte 127
 448 00f1 09       	 .byte 9
 449 00f2 09       	 .byte 9
 450 00f3 09       	 .byte 9
 451 00f4 06       	 .byte 6
 452 00f5 3E       	 .byte 62
 453 00f6 41       	 .byte 65
 454 00f7 51       	 .byte 81
 455 00f8 21       	 .byte 33
 456 00f9 5E       	 .byte 94
 457 00fa 7F       	 .byte 127
 458 00fb 09       	 .byte 9
 459 00fc 19       	 .byte 25
 460 00fd 29       	 .byte 41
 461 00fe 46       	 .byte 70
 462 00ff 46       	 .byte 70
 463 0100 49       	 .byte 73
 464 0101 49       	 .byte 73
 465 0102 49       	 .byte 73
 466 0103 31       	 .byte 49
 467 0104 01       	 .byte 1
 468 0105 01       	 .byte 1
 469 0106 7F       	 .byte 127
 470 0107 01       	 .byte 1
 471 0108 01       	 .byte 1
 472 0109 3F       	 .byte 63
 473 010a 40       	 .byte 64
 474 010b 40       	 .byte 64
 475 010c 40       	 .byte 64
 476 010d 3F       	 .byte 63
 477 010e 1F       	 .byte 31
 478 010f 20       	 .byte 32
 479 0110 40       	 .byte 64
 480 0111 20       	 .byte 32
 481 0112 1F       	 .byte 31
 482 0113 3F       	 .byte 63
 483 0114 40       	 .byte 64
 484 0115 38       	 .byte 56
 485 0116 40       	 .byte 64
 486 0117 3F       	 .byte 63
 487 0118 63       	 .byte 99
 488 0119 14       	 .byte 20
 489 011a 08       	 .byte 8
 490 011b 14       	 .byte 20
 491 011c 63       	 .byte 99
 492 011d 07       	 .byte 7
 493 011e 08       	 .byte 8
 494 011f 70       	 .byte 112
 495 0120 08       	 .byte 8
 496 0121 07       	 .byte 7
 497 0122 61       	 .byte 97
 498 0123 51       	 .byte 81
 499 0124 49       	 .byte 73
 500 0125 45       	 .byte 69
 501 0126 43       	 .byte 67
 502 0127 00       	 .byte 0
 503 0128 7F       	 .byte 127
 504 0129 41       	 .byte 65
 505 012a 41       	 .byte 65
 506 012b 00       	 .byte 0
 507 012c 02       	 .byte 2
 508 012d 04       	 .byte 4
 509 012e 08       	 .byte 8
 510 012f 10       	 .byte 16
 511 0130 20       	 .byte 32
 512 0131 00       	 .byte 0
 513 0132 41       	 .byte 65
 514 0133 41       	 .byte 65
 515 0134 7F       	 .byte 127
 516 0135 00       	 .byte 0
 517 0136 04       	 .byte 4
 518 0137 02       	 .byte 2
 519 0138 01       	 .byte 1
 520 0139 02       	 .byte 2
 521 013a 04       	 .byte 4
 522 013b 40       	 .byte 64
 523 013c 40       	 .byte 64
 524 013d 40       	 .byte 64
 525 013e 40       	 .byte 64
 526 013f 40       	 .byte 64
 527 0140 01       	 .byte 1
 528 0141 02       	 .byte 2
 529 0142 04       	 .byte 4
 530 0143 00       	 .byte 0
 531 0144 00       	 .byte 0
 532 0145 20       	 .byte 32
 533 0146 54       	 .byte 84
 534 0147 54       	 .byte 84
 535 0148 54       	 .byte 84
 536 0149 78       	 .byte 120
 537 014a 7F       	 .byte 127
 538 014b 48       	 .byte 72
 539 014c 44       	 .byte 68
 540 014d 44       	 .byte 68
 541 014e 38       	 .byte 56
 542 014f 38       	 .byte 56
 543 0150 44       	 .byte 68
 544 0151 44       	 .byte 68
 545 0152 44       	 .byte 68
 546 0153 20       	 .byte 32
 547 0154 38       	 .byte 56
 548 0155 44       	 .byte 68
 549 0156 44       	 .byte 68
 550 0157 48       	 .byte 72
 551 0158 7F       	 .byte 127
 552 0159 38       	 .byte 56
 553 015a 54       	 .byte 84
 554 015b 54       	 .byte 84
 555 015c 54       	 .byte 84
 556 015d 18       	 .byte 24
 557 015e 08       	 .byte 8
 558 015f 7E       	 .byte 126
 559 0160 09       	 .byte 9
 560 0161 01       	 .byte 1
 561 0162 02       	 .byte 2
 562 0163 06       	 .byte 6
 563 0164 49       	 .byte 73
 564 0165 49       	 .byte 73
 565 0166 49       	 .byte 73
 566 0167 3F       	 .byte 63
 567 0168 7F       	 .byte 127
 568 0169 08       	 .byte 8
 569 016a 04       	 .byte 4
 570 016b 04       	 .byte 4
 571 016c 78       	 .byte 120
 572 016d 00       	 .byte 0
 573 016e 44       	 .byte 68
 574 016f 7D       	 .byte 125
 575 0170 40       	 .byte 64
 576 0171 00       	 .byte 0
 577 0172 20       	 .byte 32
 578 0173 40       	 .byte 64
 579 0174 44       	 .byte 68
 580 0175 3D       	 .byte 61
 581 0176 00       	 .byte 0
 582 0177 7F       	 .byte 127
 583 0178 10       	 .byte 16
 584 0179 28       	 .byte 40
 585 017a 44       	 .byte 68
 586 017b 00       	 .byte 0
 587 017c 00       	 .byte 0
 588 017d 41       	 .byte 65
 589 017e 7F       	 .byte 127
 590 017f 40       	 .byte 64
 591 0180 00       	 .byte 0
 592 0181 7C       	 .byte 124
 593 0182 04       	 .byte 4
 594 0183 18       	 .byte 24
 595 0184 04       	 .byte 4
 596 0185 7C       	 .byte 124
 597 0186 7C       	 .byte 124
 598 0187 08       	 .byte 8
 599 0188 04       	 .byte 4
 600 0189 04       	 .byte 4
 601 018a 78       	 .byte 120
 602 018b 38       	 .byte 56
 603 018c 44       	 .byte 68
 604 018d 44       	 .byte 68
 605 018e 44       	 .byte 68
 606 018f 38       	 .byte 56
 607 0190 7C       	 .byte 124
 608 0191 14       	 .byte 20
 609 0192 14       	 .byte 20
 610 0193 14       	 .byte 20
 611 0194 08       	 .byte 8
 612 0195 08       	 .byte 8
 613 0196 14       	 .byte 20
 614 0197 14       	 .byte 20
 615 0198 18       	 .byte 24
 616 0199 7C       	 .byte 124
 617 019a 7C       	 .byte 124
 618 019b 08       	 .byte 8
 619 019c 04       	 .byte 4
 620 019d 04       	 .byte 4
 621 019e 08       	 .byte 8
 622 019f 48       	 .byte 72
 623 01a0 54       	 .byte 84
 624 01a1 54       	 .byte 84
 625 01a2 54       	 .byte 84
 626 01a3 20       	 .byte 32
 627 01a4 04       	 .byte 4
 628 01a5 3F       	 .byte 63
 629 01a6 44       	 .byte 68
 630 01a7 40       	 .byte 64
 631 01a8 20       	 .byte 32
 632 01a9 3C       	 .byte 60
 633 01aa 40       	 .byte 64
 634 01ab 40       	 .byte 64
 635 01ac 20       	 .byte 32
 636 01ad 7C       	 .byte 124
 637 01ae 1C       	 .byte 28
 638 01af 20       	 .byte 32
 639 01b0 40       	 .byte 64
 640 01b1 20       	 .byte 32
 641 01b2 1C       	 .byte 28
 642 01b3 3C       	 .byte 60
 643 01b4 40       	 .byte 64
 644 01b5 30       	 .byte 48
 645 01b6 40       	 .byte 64
 646 01b7 3C       	 .byte 60
 647 01b8 44       	 .byte 68
 648 01b9 28       	 .byte 40
 649 01ba 10       	 .byte 16
 650 01bb 28       	 .byte 40
 651 01bc 44       	 .byte 68
 652 01bd 0C       	 .byte 12
 653 01be 50       	 .byte 80
 654 01bf 50       	 .byte 80
 655 01c0 50       	 .byte 80
 656 01c1 3C       	 .byte 60
 657 01c2 44       	 .byte 68
 658 01c3 64       	 .byte 100
 659 01c4 54       	 .byte 84
 660 01c5 4C       	 .byte 76
 661 01c6 44       	 .byte 68
 662 01c7 00       	 .byte 0
 663 01c8 08       	 .byte 8
 664 01c9 36       	 .byte 54
 665 01ca 41       	 .byte 65
 666 01cb 00       	 .byte 0
 667 01cc 00       	 .byte 0
 668 01cd 00       	 .byte 0
 669 01ce 7F       	 .byte 127
 670 01cf 00       	 .byte 0
 671 01d0 00       	 .byte 0
 672 01d1 00       	 .byte 0
 673 01d2 41       	 .byte 65
 674 01d3 36       	 .byte 54
 675 01d4 08       	 .byte 8
 676 01d5 00       	 .byte 0
 677 01d6 02       	 .byte 2
 678 01d7 01       	 .byte 1
 679 01d8 02       	 .byte 2
 680 01d9 04       	 .byte 4
 681 01da 02       	 .byte 2
 682 01db 08       	 .byte 8
 683 01dc 0C       	 .byte 12
 684 01dd 0E       	 .byte 14
 685 01de 0C       	 .byte 12
 686 01df 08       	 .byte 8
 687 01e0 08       	 .byte 8
 688 01e1 18       	 .byte 24
 689 01e2 38       	 .byte 56
 690 01e3 18       	 .byte 24
 691 01e4 08       	 .byte 8
 692              	 .global A10pt
 693 01e5 000000   	 .section .rodata.A10pt,"a",%progbits
 694              	 .align 2
 697              	A10pt:
 698 0000 0E       	 .byte 14
 699 0001 00       	 .byte 0
 700 0002 0F       	 .byte 15
 701 0003 00       	 .byte 0
 702 0004 1B       	 .byte 27
 703 0005 00       	 .byte 0
 704 0006 1B       	 .byte 27
 705 0007 00       	 .byte 0
 706 0008 13       	 .byte 19
 707 0009 80       	 .byte -128
 708 000a 31       	 .byte 49
 709 000b 80       	 .byte -128
 710 000c 3F       	 .byte 63
 711 000d C0       	 .byte -64
 712 000e 7F       	 .byte 127
 713 000f C0       	 .byte -64
 714 0010 60       	 .byte 96
 715 0011 C0       	 .byte -64
 716 0012 60       	 .byte 96
 717 0013 E0       	 .byte -32
 718 0014 E0       	 .byte -32
 719 0015 E0       	 .byte -32
 720              	 .global D10pt
 721 0016 0000     	 .section .rodata.D10pt,"a",%progbits
 722              	 .align 2
 725              	D10pt:
 726 0000 FC       	 .byte -4
 727 0001 00       	 .byte 0
 728 0002 FF       	 .byte -1
 729 0003 00       	 .byte 0
 730 0004 C7       	 .byte -57
 731 0005 00       	 .byte 0
 732 0006 C3       	 .byte -61
 733 0007 80       	 .byte -128
 734 0008 C1       	 .byte -63
 735 0009 80       	 .byte -128
 736 000a C1       	 .byte -63
 737 000b 80       	 .byte -128
 738 000c C1       	 .byte -63
 739 000d 80       	 .byte -128
 740 000e C3       	 .byte -61
 741 000f 80       	 .byte -128
 742 0010 C7       	 .byte -57
 743 0011 00       	 .byte 0
 744 0012 FE       	 .byte -2
 745 0013 00       	 .byte 0
 746 0014 FC       	 .byte -4
 747 0015 00       	 .byte 0
 748              	 .global E10pt
 749 0016 0000     	 .section .rodata.E10pt,"a",%progbits
 750              	 .align 2
 753              	E10pt:
 754 0000 FE       	 .byte -2
 755 0001 FE       	 .byte -2
 756 0002 C0       	 .byte -64
 757 0003 C0       	 .byte -64
 758 0004 FC       	 .byte -4
 759 0005 FC       	 .byte -4
 760 0006 C0       	 .byte -64
 761 0007 C0       	 .byte -64
 762 0008 C0       	 .byte -64
 763 0009 FE       	 .byte -2
 764 000a FE       	 .byte -2
 765              	 .global H10pt
 766 000b 00       	 .section .rodata.H10pt,"a",%progbits
 767              	 .align 2
 770              	H10pt:
 771 0000 C3       	 .byte -61
 772 0001 C3       	 .byte -61
 773 0002 C3       	 .byte -61
 774 0003 C3       	 .byte -61
 775 0004 FF       	 .byte -1
 776 0005 FF       	 .byte -1
 777 0006 C3       	 .byte -61
 778 0007 C3       	 .byte -61
 779 0008 C3       	 .byte -61
 780 0009 C3       	 .byte -61
 781 000a C3       	 .byte -61
 782              	 .global I10pt
 783 000b 00       	 .section .rodata.I10pt,"a",%progbits
 784              	 .align 2
 787              	I10pt:
 788 0000 C0       	 .byte -64
 789 0001 C0       	 .byte -64
 790 0002 C0       	 .byte -64
 791 0003 C0       	 .byte -64
 792 0004 C0       	 .byte -64
 793 0005 C0       	 .byte -64
 794 0006 C0       	 .byte -64
 795 0007 C0       	 .byte -64
 796 0008 C0       	 .byte -64
 797 0009 C0       	 .byte -64
 798 000a C0       	 .byte -64
 799              	 .global L10pt
 800 000b 00       	 .section .rodata.L10pt,"a",%progbits
 801              	 .align 2
 804              	L10pt:
 805 0000 C0       	 .byte -64
 806 0001 C0       	 .byte -64
 807 0002 C0       	 .byte -64
 808 0003 C0       	 .byte -64
 809 0004 C0       	 .byte -64
 810 0005 C0       	 .byte -64
 811 0006 C0       	 .byte -64
 812 0007 C0       	 .byte -64
 813 0008 C0       	 .byte -64
 814 0009 FE       	 .byte -2
 815 000a FE       	 .byte -2
 816              	 .global N10pt
 817 000b 00       	 .section .rodata.N10pt,"a",%progbits
 818              	 .align 2
 821              	N10pt:
 822 0000 E1       	 .byte -31
 823 0001 80       	 .byte -128
 824 0002 E1       	 .byte -31
 825 0003 80       	 .byte -128
 826 0004 F1       	 .byte -15
 827 0005 80       	 .byte -128
 828 0006 F9       	 .byte -7
 829 0007 80       	 .byte -128
 830 0008 D9       	 .byte -39
 831 0009 80       	 .byte -128
 832 000a DD       	 .byte -35
 833 000b 80       	 .byte -128
 834 000c CD       	 .byte -51
 835 000d 80       	 .byte -128
 836 000e C7       	 .byte -57
 837 000f 80       	 .byte -128
 838 0010 C7       	 .byte -57
 839 0011 80       	 .byte -128
 840 0012 C3       	 .byte -61
 841 0013 80       	 .byte -128
 842 0014 C1       	 .byte -63
 843 0015 80       	 .byte -128
 844              	 .global P10pt
 845 0016 0000     	 .section .rodata.P10pt,"a",%progbits
 846              	 .align 2
 849              	P10pt:
 850 0000 FC       	 .byte -4
 851 0001 FF       	 .byte -1
 852 0002 C3       	 .byte -61
 853 0003 C3       	 .byte -61
 854 0004 C7       	 .byte -57
 855 0005 FE       	 .byte -2
 856 0006 F8       	 .byte -8
 857 0007 C0       	 .byte -64
 858 0008 C0       	 .byte -64
 859 0009 C0       	 .byte -64
 860 000a C0       	 .byte -64
 861              	 .global S10pt
 862 000b 00       	 .section .rodata.S10pt,"a",%progbits
 863              	 .align 2
 866              	S10pt:
 867 0000 7C       	 .byte 124
 868 0001 FC       	 .byte -4
 869 0002 C0       	 .byte -64
 870 0003 C0       	 .byte -64
 871 0004 F0       	 .byte -16
 872 0005 7C       	 .byte 124
 873 0006 1E       	 .byte 30
 874 0007 06       	 .byte 6
 875 0008 06       	 .byte 6
 876 0009 FE       	 .byte -2
 877 000a F8       	 .byte -8
 878              	 .global V10pt
 879 000b 00       	 .section .rodata.V10pt,"a",%progbits
 880              	 .align 2
 883              	V10pt:
 884 0000 E0       	 .byte -32
 885 0001 C0       	 .byte -64
 886 0002 E1       	 .byte -31
 887 0003 C0       	 .byte -64
 888 0004 61       	 .byte 97
 889 0005 80       	 .byte -128
 890 0006 71       	 .byte 113
 891 0007 80       	 .byte -128
 892 0008 73       	 .byte 115
 893 0009 00       	 .byte 0
 894 000a 33       	 .byte 51
 895 000b 00       	 .byte 0
 896 000c 3B       	 .byte 59
 897 000d 00       	 .byte 0
 898 000e 1E       	 .byte 30
 899 000f 00       	 .byte 0
 900 0010 1E       	 .byte 30
 901 0011 00       	 .byte 0
 902 0012 1C       	 .byte 28
 903 0013 00       	 .byte 0
 904 0014 0C       	 .byte 12
 905 0015 00       	 .byte 0
 906              	 .global W10pt
 907 0016 0000     	 .section .rodata.W10pt,"a",%progbits
 908              	 .align 2
 911              	W10pt:
 912 0000 E1       	 .byte -31
 913 0001 83       	 .byte -125
 914 0002 E1       	 .byte -31
 915 0003 C7       	 .byte -57
 916 0004 63       	 .byte 99
 917 0005 C6       	 .byte -58
 918 0006 63       	 .byte 99
 919 0007 C6       	 .byte -58
 920 0008 72       	 .byte 114
 921 0009 C6       	 .byte -58
 922 000a 32       	 .byte 50
 923 000b 6C       	 .byte 108
 924 000c 36       	 .byte 54
 925 000d 6C       	 .byte 108
 926 000e 3E       	 .byte 62
 927 000f 6C       	 .byte 108
 928 0010 1C       	 .byte 28
 929 0011 28       	 .byte 40
 930 0012 1C       	 .byte 28
 931 0013 38       	 .byte 56
 932 0014 1C       	 .byte 28
 933 0015 38       	 .byte 56
 934              	 .global Y10pt
 935 0016 0000     	 .section .rodata.Y10pt,"a",%progbits
 936              	 .align 2
 939              	Y10pt:
 940 0000 E3       	 .byte -29
 941 0001 66       	 .byte 102
 942 0002 66       	 .byte 102
 943 0003 34       	 .byte 52
 944 0004 34       	 .byte 52
 945 0005 18       	 .byte 24
 946 0006 18       	 .byte 24
 947 0007 18       	 .byte 24
 948 0008 18       	 .byte 24
 949 0009 18       	 .byte 24
 950 000a 18       	 .byte 24
 951              	 .global smiley20x20
 952 000b 00       	 .section .rodata.smiley20x20,"a",%progbits
 953              	 .align 2
 956              	smiley20x20:
 957 0000 00       	 .byte 0
 958 0001 00       	 .byte 0
 959 0002 00       	 .byte 0
 960 0003 00       	 .byte 0
 961 0004 00       	 .byte 0
 962 0005 00       	 .byte 0
 963 0006 00       	 .byte 0
 964 0007 00       	 .byte 0
 965 0008 00       	 .byte 0
 966 0009 00       	 .byte 0
 967 000a 00       	 .byte 0
 968 000b 00       	 .byte 0
 969 000c 00       	 .byte 0
 970 000d 00       	 .byte 0
 971 000e 00       	 .byte 0
 972 000f 22       	 .byte 34
 973 0010 22       	 .byte 34
 974 0011 22       	 .byte 34
 975 0012 00       	 .byte 0
 976 0013 3E       	 .byte 62
 977 0014 44       	 .byte 68
 978 0015 60       	 .byte 96
 979 0016 A1       	 .byte -95
 980 0017 CA       	 .byte -54
 981 0018 2E       	 .byte 46
 982 0019 84       	 .byte -124
 983 001a B7       	 .byte -73
 984 001b 0C       	 .byte 12
 985 001c 70       	 .byte 112
 986 001d AC       	 .byte -84
 987 001e 0C       	 .byte 12
 988 001f 70       	 .byte 112
 989 0020 AE       	 .byte -82
 990 0021 2F       	 .byte 47
 991 0022 84       	 .byte -124
 992 0023 B7       	 .byte -73
 993 0024 60       	 .byte 96
 994 0025 A1       	 .byte -95
 995 0026 CA       	 .byte -54
 996 0027 00       	 .byte 0
 997 0028 3E       	 .byte 62
 998 0029 44       	 .byte 68
 999 002a 22       	 .byte 34
 1000 002b 22       	 .byte 34
 1001 002c 22       	 .byte 34
 1002 002d 00       	 .byte 0
 1003 002e 00       	 .byte 0
 1004 002f 00       	 .byte 0
 1005 0030 00       	 .byte 0
 1006 0031 00       	 .byte 0
 1007 0032 00       	 .byte 0
 1008 0033 00       	 .byte 0
 1009 0034 00       	 .byte 0
 1010 0035 00       	 .byte 0
 1011 0036 00       	 .byte 0
 1012 0037 00       	 .byte 0
 1013 0038 00       	 .byte 0
 1014 0039 00       	 .byte 0
 1015 003a 00       	 .byte 0
 1016 003b 00       	 .byte 0
 1017 003c 00       	 .byte 0
 1018 003d 00       	 .byte 0
 1019 003e 00       	 .byte 0
 1020 003f 00       	 .byte 0
 1021 0040 00       	 .byte 0
 1022 0041 00       	 .byte 0
 1023 0042 00       	 .byte 0
 1024 0043 00       	 .byte 0
 1025 0044 00       	 .byte 0
 1026 0045 00       	 .byte 0
 1027 0046 00       	 .byte 0
 1028 0047 00       	 .byte 0
 1029 0048 00       	 .byte 0
 1030 0049 3E       	 .byte 62
 1031 004a 44       	 .byte 68
 1032 004b 41       	 .byte 65
 1033 004c 91       	 .byte -111
 1034 004d C1       	 .byte -63
 1035 004e 41       	 .byte 65
 1036 004f 9B       	 .byte -101
 1037 0050 C7       	 .byte -57
 1038 0051 61       	 .byte 97
 1039 0052 BF       	 .byte -65
 1040 0053 DD       	 .byte -35
 1041 0054 73       	 .byte 115
 1042 0055 DC       	 .byte -36
 1043 0056 EF       	 .byte -17
 1044 0057 80       	 .byte -128
 1045 0058 EF       	 .byte -17
 1046 0059 FB       	 .byte -5
 1047 005a 7F       	 .byte 127
 1048 005b EF       	 .byte -17
 1049 005c FB       	 .byte -5
 1050 005d 73       	 .byte 115
 1051 005e DC       	 .byte -36
 1052 005f EF       	 .byte -17
 1053 0060 5F       	 .byte 95
 1054 0061 BF       	 .byte -65
 1055 0062 DD       	 .byte -35
 1056 0063 41       	 .byte 65
 1057 0064 9C       	 .byte -100
 1058 0065 C7       	 .byte -57
 1059 0066 41       	 .byte 65
 1060 0067 92       	 .byte -110
 1061 0068 C1       	 .byte -63
 1062 0069 00       	 .byte 0
 1063 006a 3E       	 .byte 62
 1064 006b 44       	 .byte 68
 1065 006c 1B       	 .byte 27
 1066 006d 1B       	 .byte 27
 1067 006e 1B       	 .byte 27
 1068 006f 00       	 .byte 0
 1069 0070 00       	 .byte 0
 1070 0071 00       	 .byte 0
 1071 0072 00       	 .byte 0
 1072 0073 00       	 .byte 0
 1073 0074 00       	 .byte 0
 1074 0075 00       	 .byte 0
 1075 0076 00       	 .byte 0
 1076 0077 00       	 .byte 0
 1077 0078 00       	 .byte 0
 1078 0079 00       	 .byte 0
 1079 007a 00       	 .byte 0
 1080 007b 00       	 .byte 0
 1081 007c 00       	 .byte 0
 1082 007d 00       	 .byte 0
 1083 007e 1B       	 .byte 27
 1084 007f 1B       	 .byte 27
 1085 0080 1B       	 .byte 27
 1086 0081 00       	 .byte 0
 1087 0082 3E       	 .byte 62
 1088 0083 44       	 .byte 68
 1089 0084 37       	 .byte 55
 1090 0085 95       	 .byte -107
 1091 0086 C5       	 .byte -59
 1092 0087 61       	 .byte 97
 1093 0088 C9       	 .byte -55
 1094 0089 E5       	 .byte -27
 1095 008a 79       	 .byte 121
 1096 008b F4       	 .byte -12
 1097 008c FE       	 .byte -2
 1098 008d 7A       	 .byte 122
 1099 008e F5       	 .byte -11
 1100 008f FE       	 .byte -2
 1101 0090 7A       	 .byte 122
 1102 0091 F5       	 .byte -11
 1103 0092 FE       	 .byte -2
 1104 0093 7A       	 .byte 122
 1105 0094 F5       	 .byte -11
 1106 0095 FE       	 .byte -2
 1107 0096 7A       	 .byte 122
 1108 0097 F5       	 .byte -11
 1109 0098 FE       	 .byte -2
 1110 0099 79       	 .byte 121
 1111 009a F4       	 .byte -12
 1112 009b FE       	 .byte -2
 1113 009c 7A       	 .byte 122
 1114 009d F5       	 .byte -11
 1115 009e FE       	 .byte -2
 1116 009f 79       	 .byte 121
 1117 00a0 F5       	 .byte -11
 1118 00a1 FE       	 .byte -2
 1119 00a2 5E       	 .byte 94
 1120 00a3 CA       	 .byte -54
 1121 00a4 E5       	 .byte -27
 1122 00a5 36       	 .byte 54
 1123 00a6 94       	 .byte -108
 1124 00a7 C5       	 .byte -59
 1125 00a8 00       	 .byte 0
 1126 00a9 3E       	 .byte 62
 1127 00aa 44       	 .byte 68
 1128 00ab 1B       	 .byte 27
 1129 00ac 1B       	 .byte 27
 1130 00ad 1B       	 .byte 27
 1131 00ae 00       	 .byte 0
 1132 00af 00       	 .byte 0
 1133 00b0 00       	 .byte 0
 1134 00b1 00       	 .byte 0
 1135 00b2 00       	 .byte 0
 1136 00b3 00       	 .byte 0
 1137 00b4 00       	 .byte 0
 1138 00b5 00       	 .byte 0
 1139 00b6 00       	 .byte 0
 1140 00b7 00       	 .byte 0
 1141 00b8 00       	 .byte 0
 1142 00b9 00       	 .byte 0
 1143 00ba 00       	 .byte 0
 1144 00bb 3E       	 .byte 62
 1145 00bc 44       	 .byte 68
 1146 00bd 3F       	 .byte 63
 1147 00be A0       	 .byte -96
 1148 00bf CD       	 .byte -51
 1149 00c0 65       	 .byte 101
 1150 00c1 E0       	 .byte -32
 1151 00c2 F3       	 .byte -13
 1152 00c3 71       	 .byte 113
 1153 00c4 F4       	 .byte -12
 1154 00c5 FE       	 .byte -2
 1155 00c6 71       	 .byte 113
 1156 00c7 F4       	 .byte -12
 1157 00c8 FE       	 .byte -2
 1158 00c9 71       	 .byte 113
 1159 00ca F4       	 .byte -12
 1160 00cb FE       	 .byte -2
 1161 00cc 71       	 .byte 113
 1162 00cd F3       	 .byte -13
 1163 00ce FE       	 .byte -2
 1164 00cf 70       	 .byte 112
 1165 00d0 F4       	 .byte -12
 1166 00d1 FE       	 .byte -2
 1167 00d2 71       	 .byte 113
 1168 00d3 F4       	 .byte -12
 1169 00d4 FE       	 .byte -2
 1170 00d5 70       	 .byte 112
 1171 00d6 F3       	 .byte -13
 1172 00d7 FE       	 .byte -2
 1173 00d8 71       	 .byte 113
 1174 00d9 F4       	 .byte -12
 1175 00da FE       	 .byte -2
 1176 00db 71       	 .byte 113
 1177 00dc F3       	 .byte -13
 1178 00dd FE       	 .byte -2
 1179 00de 70       	 .byte 112
 1180 00df F4       	 .byte -12
 1181 00e0 FE       	 .byte -2
 1182 00e1 64       	 .byte 100
 1183 00e2 DE       	 .byte -34
 1184 00e3 F3       	 .byte -13
 1185 00e4 3D       	 .byte 61
 1186 00e5 A1       	 .byte -95
 1187 00e6 CD       	 .byte -51
 1188 00e7 00       	 .byte 0
 1189 00e8 3E       	 .byte 62
 1190 00e9 44       	 .byte 68
 1191 00ea 00       	 .byte 0
 1192 00eb 00       	 .byte 0
 1193 00ec 00       	 .byte 0
 1194 00ed 00       	 .byte 0
 1195 00ee 00       	 .byte 0
 1196 00ef 00       	 .byte 0
 1197 00f0 00       	 .byte 0
 1198 00f1 00       	 .byte 0
 1199 00f2 00       	 .byte 0
 1200 00f3 00       	 .byte 0
 1201 00f4 3E       	 .byte 62
 1202 00f5 44       	 .byte 68
 1203 00f6 34       	 .byte 52
 1204 00f7 98       	 .byte -104
 1205 00f8 CA       	 .byte -54
 1206 00f9 5D       	 .byte 93
 1207 00fa DE       	 .byte -34
 1208 00fb F4       	 .byte -12
 1209 00fc 68       	 .byte 104
 1210 00fd F2       	 .byte -14
 1211 00fe FE       	 .byte -2
 1212 00ff 67       	 .byte 103
 1213 0100 F2       	 .byte -14
 1214 0101 FE       	 .byte -2
 1215 0102 67       	 .byte 103
 1216 0103 F2       	 .byte -14
 1217 0104 FE       	 .byte -2
 1218 0105 2C       	 .byte 44
 1219 0106 8F       	 .byte -113
 1220 0107 A2       	 .byte -94
 1221 0108 00       	 .byte 0
 1222 0109 46       	 .byte 70
 1223 010a 5D       	 .byte 93
 1224 010b 00       	 .byte 0
 1225 010c 46       	 .byte 70
 1226 010d 5D       	 .byte 93
 1227 010e 00       	 .byte 0
 1228 010f 46       	 .byte 70
 1229 0110 5D       	 .byte 93
 1230 0111 00       	 .byte 0
 1231 0112 46       	 .byte 70
 1232 0113 5D       	 .byte 93
 1233 0114 2C       	 .byte 44
 1234 0115 8F       	 .byte -113
 1235 0116 A2       	 .byte -94
 1236 0117 68       	 .byte 104
 1237 0118 F2       	 .byte -14
 1238 0119 FE       	 .byte -2
 1239 011a 67       	 .byte 103
 1240 011b F3       	 .byte -13
 1241 011c FE       	 .byte -2
 1242 011d 67       	 .byte 103
 1243 011e F2       	 .byte -14
 1244 011f FE       	 .byte -2
 1245 0120 5B       	 .byte 91
 1246 0121 DE       	 .byte -34
 1247 0122 F4       	 .byte -12
 1248 0123 33       	 .byte 51
 1249 0124 98       	 .byte -104
 1250 0125 CA       	 .byte -54
 1251 0126 00       	 .byte 0
 1252 0127 3E       	 .byte 62
 1253 0128 44       	 .byte 68
 1254 0129 00       	 .byte 0
 1255 012a 00       	 .byte 0
 1256 012b 00       	 .byte 0
 1257 012c 22       	 .byte 34
 1258 012d 22       	 .byte 34
 1259 012e 22       	 .byte 34
 1260 012f 41       	 .byte 65
 1261 0130 9B       	 .byte -101
 1262 0131 CD       	 .byte -51
 1263 0132 4F       	 .byte 79
 1264 0133 CB       	 .byte -53
 1265 0134 E9       	 .byte -23
 1266 0135 5F       	 .byte 95
 1267 0136 F1       	 .byte -15
 1268 0137 FE       	 .byte -2
 1269 0138 5E       	 .byte 94
 1270 0139 F1       	 .byte -15
 1271 013a FE       	 .byte -2
 1272 013b 3D       	 .byte 61
 1273 013c B5       	 .byte -75
 1274 013d C6       	 .byte -58
 1275 013e 00       	 .byte 0
 1276 013f 46       	 .byte 70
 1277 0140 5D       	 .byte 93
 1278 0141 A6       	 .byte -90
 1279 0142 BE       	 .byte -66
 1280 0143 C6       	 .byte -58
 1281 0144 FE       	 .byte -2
 1282 0145 FE       	 .byte -2
 1283 0146 FE       	 .byte -2
 1284 0147 FE       	 .byte -2
 1285 0148 FE       	 .byte -2
 1286 0149 FE       	 .byte -2
 1287 014a FE       	 .byte -2
 1288 014b FE       	 .byte -2
 1289 014c FE       	 .byte -2
 1290 014d FE       	 .byte -2
 1291 014e FE       	 .byte -2
 1292 014f FE       	 .byte -2
 1293 0150 A6       	 .byte -90
 1294 0151 BE       	 .byte -66
 1295 0152 C6       	 .byte -58
 1296 0153 00       	 .byte 0
 1297 0154 46       	 .byte 70
 1298 0155 5D       	 .byte 93
 1299 0156 3E       	 .byte 62
 1300 0157 B5       	 .byte -75
 1301 0158 C6       	 .byte -58
 1302 0159 5F       	 .byte 95
 1303 015a F1       	 .byte -15
 1304 015b FE       	 .byte -2
 1305 015c 5F       	 .byte 95
 1306 015d F1       	 .byte -15
 1307 015e FE       	 .byte -2
 1308 015f 4C       	 .byte 76
 1309 0160 CB       	 .byte -53
 1310 0161 E9       	 .byte -23
 1311 0162 40       	 .byte 64
 1312 0163 9B       	 .byte -101
 1313 0164 CD       	 .byte -51
 1314 0165 22       	 .byte 34
 1315 0166 22       	 .byte 34
 1316 0167 22       	 .byte 34
 1317 0168 00       	 .byte 0
 1318 0169 3E       	 .byte 62
 1319 016a 44       	 .byte 68
 1320 016b 38       	 .byte 56
 1321 016c A5       	 .byte -91
 1322 016d D5       	 .byte -43
 1323 016e 56       	 .byte 86
 1324 016f EF       	 .byte -17
 1325 0170 FE       	 .byte -2
 1326 0171 55       	 .byte 85
 1327 0172 F0       	 .byte -16
 1328 0173 FE       	 .byte -2
 1329 0174 37       	 .byte 55
 1330 0175 B5       	 .byte -75
 1331 0176 C6       	 .byte -58
 1332 0177 00       	 .byte 0
 1333 0178 46       	 .byte 70
 1334 0179 5D       	 .byte 93
 1335 017a FE       	 .byte -2
 1336 017b FE       	 .byte -2
 1337 017c FE       	 .byte -2
 1338 017d FE       	 .byte -2
 1339 017e FE       	 .byte -2
 1340 017f FE       	 .byte -2
 1341 0180 FE       	 .byte -2
 1342 0181 FE       	 .byte -2
 1343 0182 FE       	 .byte -2
 1344 0183 FE       	 .byte -2
 1345 0184 FE       	 .byte -2
 1346 0185 FE       	 .byte -2
 1347 0186 FE       	 .byte -2
 1348 0187 FE       	 .byte -2
 1349 0188 FE       	 .byte -2
 1350 0189 FE       	 .byte -2
 1351 018a FC       	 .byte -4
 1352 018b F6       	 .byte -10
 1353 018c FE       	 .byte -2
 1354 018d FE       	 .byte -2
 1355 018e FE       	 .byte -2
 1356 018f FE       	 .byte -2
 1357 0190 FE       	 .byte -2
 1358 0191 FE       	 .byte -2
 1359 0192 00       	 .byte 0
 1360 0193 46       	 .byte 70
 1361 0194 5D       	 .byte 93
 1362 0195 37       	 .byte 55
 1363 0196 B4       	 .byte -76
 1364 0197 C6       	 .byte -58
 1365 0198 55       	 .byte 85
 1366 0199 EF       	 .byte -17
 1367 019a FE       	 .byte -2
 1368 019b 55       	 .byte 85
 1369 019c F0       	 .byte -16
 1370 019d FE       	 .byte -2
 1371 019e 37       	 .byte 55
 1372 019f A5       	 .byte -91
 1373 01a0 D4       	 .byte -44
 1374 01a1 00       	 .byte 0
 1375 01a2 3E       	 .byte 62
 1376 01a3 44       	 .byte 68
 1377 01a4 60       	 .byte 96
 1378 01a5 B0       	 .byte -80
 1379 01a6 DA       	 .byte -38
 1380 01a7 40       	 .byte 64
 1381 01a8 C4       	 .byte -60
 1382 01a9 E7       	 .byte -25
 1383 01aa 4C       	 .byte 76
 1384 01ab EF       	 .byte -17
 1385 01ac FE       	 .byte -2
 1386 01ad 4D       	 .byte 77
 1387 01ae EE       	 .byte -18
 1388 01af FE       	 .byte -2
 1389 01b0 00       	 .byte 0
 1390 01b1 46       	 .byte 70
 1391 01b2 5D       	 .byte 93
 1392 01b3 FE       	 .byte -2
 1393 01b4 FE       	 .byte -2
 1394 01b5 FE       	 .byte -2
 1395 01b6 FE       	 .byte -2
 1396 01b7 FE       	 .byte -2
 1397 01b8 FE       	 .byte -2
 1398 01b9 FE       	 .byte -2
 1399 01ba FE       	 .byte -2
 1400 01bb FE       	 .byte -2
 1401 01bc FE       	 .byte -2
 1402 01bd FE       	 .byte -2
 1403 01be FE       	 .byte -2
 1404 01bf FE       	 .byte -2
 1405 01c0 FE       	 .byte -2
 1406 01c1 FE       	 .byte -2
 1407 01c2 FE       	 .byte -2
 1408 01c3 FE       	 .byte -2
 1409 01c4 FE       	 .byte -2
 1410 01c5 FE       	 .byte -2
 1411 01c6 FE       	 .byte -2
 1412 01c7 FE       	 .byte -2
 1413 01c8 FE       	 .byte -2
 1414 01c9 FE       	 .byte -2
 1415 01ca FE       	 .byte -2
 1416 01cb FE       	 .byte -2
 1417 01cc FE       	 .byte -2
 1418 01cd FE       	 .byte -2
 1419 01ce FE       	 .byte -2
 1420 01cf FE       	 .byte -2
 1421 01d0 FE       	 .byte -2
 1422 01d1 00       	 .byte 0
 1423 01d2 46       	 .byte 70
 1424 01d3 5D       	 .byte 93
 1425 01d4 4C       	 .byte 76
 1426 01d5 EF       	 .byte -17
 1427 01d6 FE       	 .byte -2
 1428 01d7 4D       	 .byte 77
 1429 01d8 EE       	 .byte -18
 1430 01d9 FE       	 .byte -2
 1431 01da 3F       	 .byte 63
 1432 01db C4       	 .byte -60
 1433 01dc E8       	 .byte -24
 1434 01dd 60       	 .byte 96
 1435 01de B0       	 .byte -80
 1436 01df DA       	 .byte -38
 1437 01e0 30       	 .byte 48
 1438 01e1 9C       	 .byte -100
 1439 01e2 D3       	 .byte -45
 1440 01e3 3E       	 .byte 62
 1441 01e4 DB       	 .byte -37
 1442 01e5 F5       	 .byte -11
 1443 01e6 44       	 .byte 68
 1444 01e7 ED       	 .byte -19
 1445 01e8 FE       	 .byte -2
 1446 01e9 44       	 .byte 68
 1447 01ea EE       	 .byte -18
 1448 01eb FE       	 .byte -2
 1449 01ec 00       	 .byte 0
 1450 01ed 46       	 .byte 70
 1451 01ee 5D       	 .byte 93
 1452 01ef FE       	 .byte -2
 1453 01f0 FE       	 .byte -2
 1454 01f1 FE       	 .byte -2
 1455 01f2 FE       	 .byte -2
 1456 01f3 FE       	 .byte -2
 1457 01f4 FE       	 .byte -2
 1458 01f5 FE       	 .byte -2
 1459 01f6 FE       	 .byte -2
 1460 01f7 FE       	 .byte -2
 1461 01f8 FE       	 .byte -2
 1462 01f9 FE       	 .byte -2
 1463 01fa FE       	 .byte -2
 1464 01fb FE       	 .byte -2
 1465 01fc FE       	 .byte -2
 1466 01fd FE       	 .byte -2
 1467 01fe FE       	 .byte -2
 1468 01ff FE       	 .byte -2
 1469 0200 FE       	 .byte -2
 1470 0201 FE       	 .byte -2
 1471 0202 FE       	 .byte -2
 1472 0203 FE       	 .byte -2
 1473 0204 FE       	 .byte -2
 1474 0205 FE       	 .byte -2
 1475 0206 FE       	 .byte -2
 1476 0207 FE       	 .byte -2
 1477 0208 FE       	 .byte -2
 1478 0209 FE       	 .byte -2
 1479 020a FE       	 .byte -2
 1480 020b FE       	 .byte -2
 1481 020c FE       	 .byte -2
 1482 020d 00       	 .byte 0
 1483 020e 46       	 .byte 70
 1484 020f 5D       	 .byte 93
 1485 0210 44       	 .byte 68
 1486 0211 ED       	 .byte -19
 1487 0212 FE       	 .byte -2
 1488 0213 43       	 .byte 67
 1489 0214 ED       	 .byte -19
 1490 0215 FE       	 .byte -2
 1491 0216 3D       	 .byte 61
 1492 0217 DA       	 .byte -38
 1493 0218 F5       	 .byte -11
 1494 0219 2F       	 .byte 47
 1495 021a 9C       	 .byte -100
 1496 021b D3       	 .byte -45
 1497 021c 0E       	 .byte 14
 1498 021d 8F       	 .byte -113
 1499 021e D0       	 .byte -48
 1500 021f 39       	 .byte 57
 1501 0220 E8       	 .byte -24
 1502 0221 FD       	 .byte -3
 1503 0222 3B       	 .byte 59
 1504 0223 EC       	 .byte -20
 1505 0224 FE       	 .byte -2
 1506 0225 3E       	 .byte 62
 1507 0226 ED       	 .byte -19
 1508 0227 FE       	 .byte -2
 1509 0228 00       	 .byte 0
 1510 0229 46       	 .byte 70
 1511 022a 5D       	 .byte 93
 1512 022b 00       	 .byte 0
 1513 022c 46       	 .byte 70
 1514 022d 5D       	 .byte 93
 1515 022e 00       	 .byte 0
 1516 022f 46       	 .byte 70
 1517 0230 5D       	 .byte 93
 1518 0231 00       	 .byte 0
 1519 0232 46       	 .byte 70
 1520 0233 5D       	 .byte 93
 1521 0234 00       	 .byte 0
 1522 0235 46       	 .byte 70
 1523 0236 5D       	 .byte 93
 1524 0237 00       	 .byte 0
 1525 0238 46       	 .byte 70
 1526 0239 5D       	 .byte 93
 1527 023a 00       	 .byte 0
 1528 023b 46       	 .byte 70
 1529 023c 5D       	 .byte 93
 1530 023d 00       	 .byte 0
 1531 023e 46       	 .byte 70
 1532 023f 5D       	 .byte 93
 1533 0240 00       	 .byte 0
 1534 0241 46       	 .byte 70
 1535 0242 5D       	 .byte 93
 1536 0243 00       	 .byte 0
 1537 0244 46       	 .byte 70
 1538 0245 5D       	 .byte 93
 1539 0246 00       	 .byte 0
 1540 0247 46       	 .byte 70
 1541 0248 5D       	 .byte 93
 1542 0249 00       	 .byte 0
 1543 024a 46       	 .byte 70
 1544 024b 5D       	 .byte 93
 1545 024c 3F       	 .byte 63
 1546 024d ED       	 .byte -19
 1547 024e FE       	 .byte -2
 1548 024f 3A       	 .byte 58
 1549 0250 EC       	 .byte -20
 1550 0251 FE       	 .byte -2
 1551 0252 38       	 .byte 56
 1552 0253 E8       	 .byte -24
 1553 0254 FD       	 .byte -3
 1554 0255 0E       	 .byte 14
 1555 0256 8F       	 .byte -113
 1556 0257 D0       	 .byte -48
 1557 0258 0E       	 .byte 14
 1558 0259 94       	 .byte -108
 1559 025a D5       	 .byte -43
 1560 025b 30       	 .byte 48
 1561 025c E7       	 .byte -25
 1562 025d FE       	 .byte -2
 1563 025e 32       	 .byte 50
 1564 025f EB       	 .byte -21
 1565 0260 FE       	 .byte -2
 1566 0261 4A       	 .byte 74
 1567 0262 EE       	 .byte -18
 1568 0263 FE       	 .byte -2
 1569 0264 63       	 .byte 99
 1570 0265 F1       	 .byte -15
 1571 0266 FE       	 .byte -2
 1572 0267 63       	 .byte 99
 1573 0268 F2       	 .byte -14
 1574 0269 FE       	 .byte -2
 1575 026a 63       	 .byte 99
 1576 026b F2       	 .byte -14
 1577 026c FE       	 .byte -2
 1578 026d 63       	 .byte 99
 1579 026e F1       	 .byte -15
 1580 026f FE       	 .byte -2
 1581 0270 63       	 .byte 99
 1582 0271 F2       	 .byte -14
 1583 0272 FE       	 .byte -2
 1584 0273 64       	 .byte 100
 1585 0274 F2       	 .byte -14
 1586 0275 FE       	 .byte -2
 1587 0276 63       	 .byte 99
 1588 0277 F2       	 .byte -14
 1589 0278 FE       	 .byte -2
 1590 0279 63       	 .byte 99
 1591 027a F2       	 .byte -14
 1592 027b FE       	 .byte -2
 1593 027c 63       	 .byte 99
 1594 027d F2       	 .byte -14
 1595 027e FE       	 .byte -2
 1596 027f 63       	 .byte 99
 1597 0280 F1       	 .byte -15
 1598 0281 FE       	 .byte -2
 1599 0282 64       	 .byte 100
 1600 0283 F2       	 .byte -14
 1601 0284 FE       	 .byte -2
 1602 0285 64       	 .byte 100
 1603 0286 F2       	 .byte -14
 1604 0287 FE       	 .byte -2
 1605 0288 4A       	 .byte 74
 1606 0289 EE       	 .byte -18
 1607 028a FE       	 .byte -2
 1608 028b 32       	 .byte 50
 1609 028c EB       	 .byte -21
 1610 028d FE       	 .byte -2
 1611 028e 30       	 .byte 48
 1612 028f E7       	 .byte -25
 1613 0290 FD       	 .byte -3
 1614 0291 0E       	 .byte 14
 1615 0292 94       	 .byte -108
 1616 0293 D4       	 .byte -44
 1617 0294 30       	 .byte 48
 1618 0295 A6       	 .byte -90
 1619 0296 E0       	 .byte -32
 1620 0297 2A       	 .byte 42
 1621 0298 DA       	 .byte -38
 1622 0299 F8       	 .byte -8
 1623 029a 2A       	 .byte 42
 1624 029b E9       	 .byte -23
 1625 029c FE       	 .byte -2
 1626 029d 60       	 .byte 96
 1627 029e F1       	 .byte -15
 1628 029f FE       	 .byte -2
 1629 02a0 6F       	 .byte 111
 1630 02a1 F3       	 .byte -13
 1631 02a2 FE       	 .byte -2
 1632 02a3 6F       	 .byte 111
 1633 02a4 F3       	 .byte -13
 1634 02a5 FE       	 .byte -2
 1635 02a6 6F       	 .byte 111
 1636 02a7 F3       	 .byte -13
 1637 02a8 FE       	 .byte -2
 1638 02a9 6F       	 .byte 111
 1639 02aa F3       	 .byte -13
 1640 02ab FE       	 .byte -2
 1641 02ac 6F       	 .byte 111
 1642 02ad F3       	 .byte -13
 1643 02ae FE       	 .byte -2
 1644 02af 6F       	 .byte 111
 1645 02b0 F3       	 .byte -13
 1646 02b1 FE       	 .byte -2
 1647 02b2 6F       	 .byte 111
 1648 02b3 F3       	 .byte -13
 1649 02b4 FE       	 .byte -2
 1650 02b5 6F       	 .byte 111
 1651 02b6 F3       	 .byte -13
 1652 02b7 FE       	 .byte -2
 1653 02b8 6F       	 .byte 111
 1654 02b9 F3       	 .byte -13
 1655 02ba FE       	 .byte -2
 1656 02bb 6F       	 .byte 111
 1657 02bc F3       	 .byte -13
 1658 02bd FE       	 .byte -2
 1659 02be 6F       	 .byte 111
 1660 02bf F3       	 .byte -13
 1661 02c0 FE       	 .byte -2
 1662 02c1 6F       	 .byte 111
 1663 02c2 F3       	 .byte -13
 1664 02c3 FE       	 .byte -2
 1665 02c4 60       	 .byte 96
 1666 02c5 F1       	 .byte -15
 1667 02c6 FE       	 .byte -2
 1668 02c7 2A       	 .byte 42
 1669 02c8 EA       	 .byte -22
 1670 02c9 FE       	 .byte -2
 1671 02ca 29       	 .byte 41
 1672 02cb DA       	 .byte -38
 1673 02cc F8       	 .byte -8
 1674 02cd 30       	 .byte 48
 1675 02ce A7       	 .byte -89
 1676 02cf DE       	 .byte -34
 1677 02d0 61       	 .byte 97
 1678 02d1 BE       	 .byte -66
 1679 02d2 EA       	 .byte -22
 1680 02d3 2C       	 .byte 44
 1681 02d4 CA       	 .byte -54
 1682 02d5 F1       	 .byte -15
 1683 02d6 23       	 .byte 35
 1684 02d7 E9       	 .byte -23
 1685 02d8 FE       	 .byte -2
 1686 02d9 7B       	 .byte 123
 1687 02da F5       	 .byte -11
 1688 02db FE       	 .byte -2
 1689 02dc 00       	 .byte 0
 1690 02dd 46       	 .byte 70
 1691 02de 5D       	 .byte 93
 1692 02df 7E       	 .byte 126
 1693 02e0 F5       	 .byte -11
 1694 02e1 FE       	 .byte -2
 1695 02e2 7D       	 .byte 125
 1696 02e3 F5       	 .byte -11
 1697 02e4 FE       	 .byte -2
 1698 02e5 7E       	 .byte 126
 1699 02e6 F5       	 .byte -11
 1700 02e7 FE       	 .byte -2
 1701 02e8 00       	 .byte 0
 1702 02e9 46       	 .byte 70
 1703 02ea 5D       	 .byte 93
 1704 02eb 7E       	 .byte 126
 1705 02ec F5       	 .byte -11
 1706 02ed FE       	 .byte -2
 1707 02ee 7E       	 .byte 126
 1708 02ef F5       	 .byte -11
 1709 02f0 FE       	 .byte -2
 1710 02f1 00       	 .byte 0
 1711 02f2 46       	 .byte 70
 1712 02f3 5D       	 .byte 93
 1713 02f4 7E       	 .byte 126
 1714 02f5 F5       	 .byte -11
 1715 02f6 FE       	 .byte -2
 1716 02f7 7E       	 .byte 126
 1717 02f8 F5       	 .byte -11
 1718 02f9 FE       	 .byte -2
 1719 02fa 7D       	 .byte 125
 1720 02fb F5       	 .byte -11
 1721 02fc FE       	 .byte -2
 1722 02fd 00       	 .byte 0
 1723 02fe 46       	 .byte 70
 1724 02ff 5D       	 .byte 93
 1725 0300 7B       	 .byte 123
 1726 0301 F4       	 .byte -12
 1727 0302 FE       	 .byte -2
 1728 0303 23       	 .byte 35
 1729 0304 E9       	 .byte -23
 1730 0305 FE       	 .byte -2
 1731 0306 2C       	 .byte 44
 1732 0307 C9       	 .byte -55
 1733 0308 F1       	 .byte -15
 1734 0309 61       	 .byte 97
 1735 030a BE       	 .byte -66
 1736 030b E9       	 .byte -23
 1737 030c 00       	 .byte 0
 1738 030d 3E       	 .byte 62
 1739 030e 44       	 .byte 68
 1740 030f 2E       	 .byte 46
 1741 0310 B9       	 .byte -71
 1742 0311 EB       	 .byte -21
 1743 0312 1B       	 .byte 27
 1744 0313 E8       	 .byte -24
 1745 0314 FE       	 .byte -2
 1746 0315 74       	 .byte 116
 1747 0316 F4       	 .byte -12
 1748 0317 FE       	 .byte -2
 1749 0318 8D       	 .byte -115
 1750 0319 F7       	 .byte -9
 1751 031a FE       	 .byte -2
 1752 031b 00       	 .byte 0
 1753 031c 46       	 .byte 70
 1754 031d 5D       	 .byte 93
 1755 031e 00       	 .byte 0
 1756 031f 46       	 .byte 70
 1757 0320 5D       	 .byte 93
 1758 0321 00       	 .byte 0
 1759 0322 46       	 .byte 70
 1760 0323 5D       	 .byte 93
 1761 0324 8D       	 .byte -115
 1762 0325 F7       	 .byte -9
 1763 0326 FE       	 .byte -2
 1764 0327 8D       	 .byte -115
 1765 0328 F7       	 .byte -9
 1766 0329 FE       	 .byte -2
 1767 032a 8D       	 .byte -115
 1768 032b F7       	 .byte -9
 1769 032c FE       	 .byte -2
 1770 032d 8D       	 .byte -115
 1771 032e F7       	 .byte -9
 1772 032f FE       	 .byte -2
 1773 0330 00       	 .byte 0
 1774 0331 46       	 .byte 70
 1775 0332 5D       	 .byte 93
 1776 0333 00       	 .byte 0
 1777 0334 46       	 .byte 70
 1778 0335 5D       	 .byte 93
 1779 0336 00       	 .byte 0
 1780 0337 46       	 .byte 70
 1781 0338 5D       	 .byte 93
 1782 0339 8D       	 .byte -115
 1783 033a F7       	 .byte -9
 1784 033b FE       	 .byte -2
 1785 033c 74       	 .byte 116
 1786 033d F4       	 .byte -12
 1787 033e FE       	 .byte -2
 1788 033f 1B       	 .byte 27
 1789 0340 E7       	 .byte -25
 1790 0341 FE       	 .byte -2
 1791 0342 2D       	 .byte 45
 1792 0343 BA       	 .byte -70
 1793 0344 EB       	 .byte -21
 1794 0345 00       	 .byte 0
 1795 0346 3E       	 .byte 62
 1796 0347 44       	 .byte 68
 1797 0348 22       	 .byte 34
 1798 0349 22       	 .byte 34
 1799 034a 22       	 .byte 34
 1800 034b 40       	 .byte 64
 1801 034c B9       	 .byte -71
 1802 034d EC       	 .byte -20
 1803 034e 21       	 .byte 33
 1804 034f D1       	 .byte -47
 1805 0350 F6       	 .byte -10
 1806 0351 56       	 .byte 86
 1807 0352 F0       	 .byte -16
 1808 0353 FE       	 .byte -2
 1809 0354 9E       	 .byte -98
 1810 0355 FA       	 .byte -6
 1811 0356 FE       	 .byte -2
 1812 0357 9E       	 .byte -98
 1813 0358 FA       	 .byte -6
 1814 0359 FE       	 .byte -2
 1815 035a 9E       	 .byte -98
 1816 035b FA       	 .byte -6
 1817 035c FE       	 .byte -2
 1818 035d 9E       	 .byte -98
 1819 035e FA       	 .byte -6
 1820 035f FE       	 .byte -2
 1821 0360 9E       	 .byte -98
 1822 0361 F9       	 .byte -7
 1823 0362 FE       	 .byte -2
 1824 0363 9E       	 .byte -98
 1825 0364 FA       	 .byte -6
 1826 0365 FE       	 .byte -2
 1827 0366 9E       	 .byte -98
 1828 0367 FA       	 .byte -6
 1829 0368 FE       	 .byte -2
 1830 0369 9E       	 .byte -98
 1831 036a F9       	 .byte -7
 1832 036b FE       	 .byte -2
 1833 036c 9E       	 .byte -98
 1834 036d FA       	 .byte -6
 1835 036e FE       	 .byte -2
 1836 036f 9E       	 .byte -98
 1837 0370 FA       	 .byte -6
 1838 0371 FE       	 .byte -2
 1839 0372 9E       	 .byte -98
 1840 0373 FA       	 .byte -6
 1841 0374 FE       	 .byte -2
 1842 0375 9E       	 .byte -98
 1843 0376 FA       	 .byte -6
 1844 0377 FE       	 .byte -2
 1845 0378 57       	 .byte 87
 1846 0379 F0       	 .byte -16
 1847 037a FE       	 .byte -2
 1848 037b 21       	 .byte 33
 1849 037c D1       	 .byte -47
 1850 037d F6       	 .byte -10
 1851 037e 3F       	 .byte 63
 1852 037f B9       	 .byte -71
 1853 0380 EC       	 .byte -20
 1854 0381 22       	 .byte 34
 1855 0382 22       	 .byte 34
 1856 0383 22       	 .byte 34
 1857 0384 00       	 .byte 0
 1858 0385 00       	 .byte 0
 1859 0386 00       	 .byte 0
 1860 0387 00       	 .byte 0
 1861 0388 3E       	 .byte 62
 1862 0389 44       	 .byte 68
 1863 038a 2A       	 .byte 42
 1864 038b B9       	 .byte -71
 1865 038c EF       	 .byte -17
 1866 038d 24       	 .byte 36
 1867 038e DE       	 .byte -34
 1868 038f FC       	 .byte -4
 1869 0390 79       	 .byte 121
 1870 0391 F5       	 .byte -11
 1871 0392 FE       	 .byte -2
 1872 0393 AD       	 .byte -83
 1873 0394 FC       	 .byte -4
 1874 0395 FE       	 .byte -2
 1875 0396 AD       	 .byte -83
 1876 0397 FC       	 .byte -4
 1877 0398 FE       	 .byte -2
 1878 0399 AD       	 .byte -83
 1879 039a FC       	 .byte -4
 1880 039b FE       	 .byte -2
 1881 039c AD       	 .byte -83
 1882 039d FC       	 .byte -4
 1883 039e FE       	 .byte -2
 1884 039f AD       	 .byte -83
 1885 03a0 FC       	 .byte -4
 1886 03a1 FE       	 .byte -2
 1887 03a2 AD       	 .byte -83
 1888 03a3 FC       	 .byte -4
 1889 03a4 FE       	 .byte -2
 1890 03a5 AE       	 .byte -82
 1891 03a6 FC       	 .byte -4
 1892 03a7 FE       	 .byte -2
 1893 03a8 AD       	 .byte -83
 1894 03a9 FC       	 .byte -4
 1895 03aa FE       	 .byte -2
 1896 03ab AD       	 .byte -83
 1897 03ac FC       	 .byte -4
 1898 03ad FE       	 .byte -2
 1899 03ae AE       	 .byte -82
 1900 03af FC       	 .byte -4
 1901 03b0 FE       	 .byte -2
 1902 03b1 79       	 .byte 121
 1903 03b2 F5       	 .byte -11
 1904 03b3 FE       	 .byte -2
 1905 03b4 24       	 .byte 36
 1906 03b5 DE       	 .byte -34
 1907 03b6 FC       	 .byte -4
 1908 03b7 2A       	 .byte 42
 1909 03b8 B9       	 .byte -71
 1910 03b9 EF       	 .byte -17
 1911 03ba 00       	 .byte 0
 1912 03bb 3E       	 .byte 62
 1913 03bc 44       	 .byte 68
 1914 03bd 00       	 .byte 0
 1915 03be 00       	 .byte 0
 1916 03bf 00       	 .byte 0
 1917 03c0 00       	 .byte 0
 1918 03c1 00       	 .byte 0
 1919 03c2 00       	 .byte 0
 1920 03c3 00       	 .byte 0
 1921 03c4 00       	 .byte 0
 1922 03c5 00       	 .byte 0
 1923 03c6 00       	 .byte 0
 1924 03c7 3E       	 .byte 62
 1925 03c8 44       	 .byte 68
 1926 03c9 2B       	 .byte 43
 1927 03ca C1       	 .byte -63
 1928 03cb F3       	 .byte -13
 1929 03cc 29       	 .byte 41
 1930 03cd DF       	 .byte -33
 1931 03ce FD       	 .byte -3
 1932 03cf 74       	 .byte 116
 1933 03d0 F4       	 .byte -12
 1934 03d1 FE       	 .byte -2
 1935 03d2 BB       	 .byte -69
 1936 03d3 FD       	 .byte -3
 1937 03d4 FE       	 .byte -2
 1938 03d5 BB       	 .byte -69
 1939 03d6 FD       	 .byte -3
 1940 03d7 FE       	 .byte -2
 1941 03d8 BB       	 .byte -69
 1942 03d9 FD       	 .byte -3
 1943 03da FE       	 .byte -2
 1944 03db BB       	 .byte -69
 1945 03dc FD       	 .byte -3
 1946 03dd FE       	 .byte -2
 1947 03de BB       	 .byte -69
 1948 03df FD       	 .byte -3
 1949 03e0 FE       	 .byte -2
 1950 03e1 BB       	 .byte -69
 1951 03e2 FD       	 .byte -3
 1952 03e3 FE       	 .byte -2
 1953 03e4 BB       	 .byte -69
 1954 03e5 FD       	 .byte -3
 1955 03e6 FE       	 .byte -2
 1956 03e7 BB       	 .byte -69
 1957 03e8 FD       	 .byte -3
 1958 03e9 FE       	 .byte -2
 1959 03ea 74       	 .byte 116
 1960 03eb F4       	 .byte -12
 1961 03ec FE       	 .byte -2
 1962 03ed 28       	 .byte 40
 1963 03ee E0       	 .byte -32
 1964 03ef FD       	 .byte -3
 1965 03f0 2A       	 .byte 42
 1966 03f1 C1       	 .byte -63
 1967 03f2 F3       	 .byte -13
 1968 03f3 00       	 .byte 0
 1969 03f4 3E       	 .byte 62
 1970 03f5 44       	 .byte 68
 1971 03f6 00       	 .byte 0
 1972 03f7 00       	 .byte 0
 1973 03f8 00       	 .byte 0
 1974 03f9 00       	 .byte 0
 1975 03fa 00       	 .byte 0
 1976 03fb 00       	 .byte 0
 1977 03fc 00       	 .byte 0
 1978 03fd 00       	 .byte 0
 1979 03fe 00       	 .byte 0
 1980 03ff 00       	 .byte 0
 1981 0400 00       	 .byte 0
 1982 0401 00       	 .byte 0
 1983 0402 1B       	 .byte 27
 1984 0403 1B       	 .byte 27
 1985 0404 1B       	 .byte 27
 1986 0405 00       	 .byte 0
 1987 0406 3E       	 .byte 62
 1988 0407 44       	 .byte 68
 1989 0408 28       	 .byte 40
 1990 0409 BF       	 .byte -65
 1991 040a F3       	 .byte -13
 1992 040b 1A       	 .byte 26
 1993 040c D4       	 .byte -44
 1994 040d FA       	 .byte -6
 1995 040e 41       	 .byte 65
 1996 040f EC       	 .byte -20
 1997 0410 FE       	 .byte -2
 1998 0411 74       	 .byte 116
 1999 0412 F4       	 .byte -12
 2000 0413 FE       	 .byte -2
 2001 0414 9E       	 .byte -98
 2002 0415 FA       	 .byte -6
 2003 0416 FE       	 .byte -2
 2004 0417 BB       	 .byte -69
 2005 0418 FE       	 .byte -2
 2006 0419 FE       	 .byte -2
 2007 041a BB       	 .byte -69
 2008 041b FE       	 .byte -2
 2009 041c FE       	 .byte -2
 2010 041d 9E       	 .byte -98
 2011 041e FA       	 .byte -6
 2012 041f FE       	 .byte -2
 2013 0420 74       	 .byte 116
 2014 0421 F4       	 .byte -12
 2015 0422 FE       	 .byte -2
 2016 0423 42       	 .byte 66
 2017 0424 EC       	 .byte -20
 2018 0425 FE       	 .byte -2
 2019 0426 19       	 .byte 25
 2020 0427 D3       	 .byte -45
 2021 0428 FA       	 .byte -6
 2022 0429 29       	 .byte 41
 2023 042a BF       	 .byte -65
 2024 042b F4       	 .byte -12
 2025 042c 00       	 .byte 0
 2026 042d 3E       	 .byte 62
 2027 042e 44       	 .byte 68
 2028 042f 1B       	 .byte 27
 2029 0430 1B       	 .byte 27
 2030 0431 1B       	 .byte 27
 2031 0432 00       	 .byte 0
 2032 0433 00       	 .byte 0
 2033 0434 00       	 .byte 0
 2034 0435 00       	 .byte 0
 2035 0436 00       	 .byte 0
 2036 0437 00       	 .byte 0
 2037 0438 00       	 .byte 0
 2038 0439 00       	 .byte 0
 2039 043a 00       	 .byte 0
 2040 043b 00       	 .byte 0
 2041 043c 00       	 .byte 0
 2042 043d 00       	 .byte 0
 2043 043e 00       	 .byte 0
 2044 043f 00       	 .byte 0
 2045 0440 00       	 .byte 0
 2046 0441 00       	 .byte 0
 2047 0442 00       	 .byte 0
 2048 0443 00       	 .byte 0
 2049 0444 00       	 .byte 0
 2050 0445 3E       	 .byte 62
 2051 0446 44       	 .byte 68
 2052 0447 41       	 .byte 65
 2053 0448 C3       	 .byte -61
 2054 0449 F5       	 .byte -11
 2055 044a 2A       	 .byte 42
 2056 044b C4       	 .byte -60
 2057 044c F6       	 .byte -10
 2058 044d 1B       	 .byte 27
 2059 044e D1       	 .byte -47
 2060 044f FA       	 .byte -6
 2061 0450 0A       	 .byte 10
 2062 0451 DB       	 .byte -37
 2063 0452 FD       	 .byte -3
 2064 0453 01       	 .byte 1
 2065 0454 E2       	 .byte -30
 2066 0455 FE       	 .byte -2
 2067 0456 01       	 .byte 1
 2068 0457 E2       	 .byte -30
 2069 0458 FE       	 .byte -2
 2070 0459 0A       	 .byte 10
 2071 045a DB       	 .byte -37
 2072 045b FD       	 .byte -3
 2073 045c 1B       	 .byte 27
 2074 045d D1       	 .byte -47
 2075 045e FA       	 .byte -6
 2076 045f 29       	 .byte 41
 2077 0460 C5       	 .byte -59
 2078 0461 F7       	 .byte -9
 2079 0462 41       	 .byte 65
 2080 0463 C3       	 .byte -61
 2081 0464 F6       	 .byte -10
 2082 0465 00       	 .byte 0
 2083 0466 3E       	 .byte 62
 2084 0467 44       	 .byte 68
 2085 0468 00       	 .byte 0
 2086 0469 00       	 .byte 0
 2087 046a 00       	 .byte 0
 2088 046b 00       	 .byte 0
 2089 046c 00       	 .byte 0
 2090 046d 00       	 .byte 0
 2091 046e 00       	 .byte 0
 2092 046f 00       	 .byte 0
 2093 0470 00       	 .byte 0
 2094 0471 00       	 .byte 0
 2095 0472 00       	 .byte 0
 2096 0473 00       	 .byte 0
 2097 0474 00       	 .byte 0
 2098 0475 00       	 .byte 0
 2099 0476 00       	 .byte 0
 2100 0477 00       	 .byte 0
 2101 0478 00       	 .byte 0
 2102 0479 00       	 .byte 0
 2103 047a 00       	 .byte 0
 2104 047b 00       	 .byte 0
 2105 047c 00       	 .byte 0
 2106 047d 00       	 .byte 0
 2107 047e 00       	 .byte 0
 2108 047f 00       	 .byte 0
 2109 0480 00       	 .byte 0
 2110 0481 00       	 .byte 0
 2111 0482 00       	 .byte 0
 2112 0483 22       	 .byte 34
 2113 0484 22       	 .byte 34
 2114 0485 22       	 .byte 34
 2115 0486 00       	 .byte 0
 2116 0487 3E       	 .byte 62
 2117 0488 44       	 .byte 68
 2118 0489 62       	 .byte 98
 2119 048a CE       	 .byte -50
 2120 048b F9       	 .byte -7
 2121 048c 32       	 .byte 50
 2122 048d BE       	 .byte -66
 2123 048e F6       	 .byte -10
 2124 048f 10       	 .byte 16
 2125 0490 B3       	 .byte -77
 2126 0491 F5       	 .byte -11
 2127 0492 10       	 .byte 16
 2128 0493 B3       	 .byte -77
 2129 0494 F5       	 .byte -11
 2130 0495 32       	 .byte 50
 2131 0496 BE       	 .byte -66
 2132 0497 F6       	 .byte -10
 2133 0498 62       	 .byte 98
 2134 0499 CE       	 .byte -50
 2135 049a F9       	 .byte -7
 2136 049b 00       	 .byte 0
 2137 049c 3E       	 .byte 62
 2138 049d 44       	 .byte 68
 2139 049e 22       	 .byte 34
 2140 049f 22       	 .byte 34
 2141 04a0 22       	 .byte 34
 2142 04a1 00       	 .byte 0
 2143 04a2 00       	 .byte 0
 2144 04a3 00       	 .byte 0
 2145 04a4 00       	 .byte 0
 2146 04a5 00       	 .byte 0
 2147 04a6 00       	 .byte 0
 2148 04a7 00       	 .byte 0
 2149 04a8 00       	 .byte 0
 2150 04a9 00       	 .byte 0
 2151 04aa 00       	 .byte 0
 2152 04ab 00       	 .byte 0
 2153 04ac 00       	 .byte 0
 2154 04ad 00       	 .byte 0
 2155 04ae 00       	 .byte 0
 2156 04af 00       	 .byte 0
 2157              	 .section .text.display_setup,"ax",%progbits
 2158              	 .align 2
 2159              	 .global display_setup
 2160              	 .thumb
 2161              	 .thumb_func
 2163              	display_setup:
 2164              	.LFB310:
 2165              	 .file 3 "../display_functions.c"
   1:../display_functions.c **** #include"display_functions.h"
   2:../display_functions.c **** #include"display_database.h"
   3:../display_functions.c **** 
   4:../display_functions.c **** 
   5:../display_functions.c **** void display_setup(){
 2166              	 .loc 3 5 0
 2167              	 .cfi_startproc
 2168              	 
 2169              	 
 2170 0000 80B5     	 push {r7,lr}
 2171              	.LCFI22:
 2172              	 .cfi_def_cfa_offset 8
 2173              	 .cfi_offset 7,-8
 2174              	 .cfi_offset 14,-4
 2175 0002 82B0     	 sub sp,sp,#8
 2176              	.LCFI23:
 2177              	 .cfi_def_cfa_offset 16
 2178 0004 02AF     	 add r7,sp,#8
 2179              	.LCFI24:
 2180              	 .cfi_def_cfa 7,8
   6:../display_functions.c **** 
   7:../display_functions.c **** 	SPI_MASTER_Init (&SPI_MASTER_0);
 2181              	 .loc 3 7 0
 2182 0006 8048     	 ldr r0,.L6
 2183 0008 FFF7FEFF 	 bl SPI_MASTER_Init
   8:../display_functions.c **** 	DIGITAL_IO_SetOutputLow(&RESET);
 2184              	 .loc 3 8 0
 2185 000c 7F48     	 ldr r0,.L6+4
 2186 000e FFF7FEFF 	 bl DIGITAL_IO_SetOutputLow
   9:../display_functions.c **** 
  10:../display_functions.c ****     DIGITAL_IO_SetOutputHigh(&RESET);
 2187              	 .loc 3 10 0
 2188 0012 7E48     	 ldr r0,.L6+4
 2189 0014 FFF7FEFF 	 bl DIGITAL_IO_SetOutputHigh
  11:../display_functions.c **** 	//DIGITAL_IO_SetOutputHigh(&REGISTER_SIGNAL);
  12:../display_functions.c **** 	//DIGITAL_IO_SetOutputHigh(&OLED_CS);
  13:../display_functions.c **** 
  14:../display_functions.c **** 
  15:../display_functions.c ****     // display off, analog reset
  16:../display_functions.c ****     OLED_Command_160128RGB(0x04);
 2190              	 .loc 3 16 0
 2191 0018 0420     	 movs r0,#4
 2192 001a FFF7FEFF 	 bl OLED_Command_160128RGB
  17:../display_functions.c ****     OLED_Data_160128RGB(0x01);
 2193              	 .loc 3 17 0
 2194 001e 0120     	 movs r0,#1
 2195 0020 FFF7FEFF 	 bl OLED_Data_160128RGB
  18:../display_functions.c **** 
  19:../display_functions.c ****      // normal mode
  20:../display_functions.c ****     OLED_Command_160128RGB(0x04);
 2196              	 .loc 3 20 0
 2197 0024 0420     	 movs r0,#4
 2198 0026 FFF7FEFF 	 bl OLED_Command_160128RGB
  21:../display_functions.c ****     OLED_Data_160128RGB(0x00);
 2199              	 .loc 3 21 0
 2200 002a 0020     	 movs r0,#0
 2201 002c FFF7FEFF 	 bl OLED_Data_160128RGB
  22:../display_functions.c **** 
  23:../display_functions.c ****     // display off
  24:../display_functions.c ****     OLED_Command_160128RGB(0x06);
 2202              	 .loc 3 24 0
 2203 0030 0620     	 movs r0,#6
 2204 0032 FFF7FEFF 	 bl OLED_Command_160128RGB
  25:../display_functions.c ****     OLED_Data_160128RGB(0x00);
 2205              	 .loc 3 25 0
 2206 0036 0020     	 movs r0,#0
 2207 0038 FFF7FEFF 	 bl OLED_Data_160128RGB
  26:../display_functions.c **** 
  27:../display_functions.c ****     // turn on internal oscillator using external resistor
  28:../display_functions.c ****     OLED_Command_160128RGB(0x02);
 2208              	 .loc 3 28 0
 2209 003c 0220     	 movs r0,#2
 2210 003e FFF7FEFF 	 bl OLED_Command_160128RGB
  29:../display_functions.c ****     OLED_Data_160128RGB(0x01);
 2211              	 .loc 3 29 0
 2212 0042 0120     	 movs r0,#1
 2213 0044 FFF7FEFF 	 bl OLED_Data_160128RGB
  30:../display_functions.c **** 
  31:../display_functions.c ****     // 90 hz frame rate, divider 0
  32:../display_functions.c ****     OLED_Command_160128RGB(0x03);
 2214              	 .loc 3 32 0
 2215 0048 0320     	 movs r0,#3
 2216 004a FFF7FEFF 	 bl OLED_Command_160128RGB
  33:../display_functions.c ****     OLED_Data_160128RGB(0x30);
 2217              	 .loc 3 33 0
 2218 004e 3020     	 movs r0,#48
 2219 0050 FFF7FEFF 	 bl OLED_Data_160128RGB
  34:../display_functions.c **** 
  35:../display_functions.c ****     // duty cycle 127
  36:../display_functions.c ****     OLED_Command_160128RGB(0x28);
 2220              	 .loc 3 36 0
 2221 0054 2820     	 movs r0,#40
 2222 0056 FFF7FEFF 	 bl OLED_Command_160128RGB
  37:../display_functions.c ****     OLED_Data_160128RGB(0x7F);
 2223              	 .loc 3 37 0
 2224 005a 7F20     	 movs r0,#127
 2225 005c FFF7FEFF 	 bl OLED_Data_160128RGB
  38:../display_functions.c **** 
  39:../display_functions.c ****     // start on line 0
  40:../display_functions.c ****     OLED_Command_160128RGB(0x29);
 2226              	 .loc 3 40 0
 2227 0060 2920     	 movs r0,#41
 2228 0062 FFF7FEFF 	 bl OLED_Command_160128RGB
  41:../display_functions.c ****     OLED_Data_160128RGB(0x00);
 2229              	 .loc 3 41 0
 2230 0066 0020     	 movs r0,#0
 2231 0068 FFF7FEFF 	 bl OLED_Data_160128RGB
  42:../display_functions.c **** 
  43:../display_functions.c ****     // rgb_if
  44:../display_functions.c ****     OLED_Command_160128RGB(0x14);
 2232              	 .loc 3 44 0
 2233 006c 1420     	 movs r0,#20
 2234 006e FFF7FEFF 	 bl OLED_Command_160128RGB
  45:../display_functions.c ****     OLED_Data_160128RGB(0x31);
 2235              	 .loc 3 45 0
 2236 0072 3120     	 movs r0,#49
 2237 0074 FFF7FEFF 	 bl OLED_Data_160128RGB
  46:../display_functions.c **** 
  47:../display_functions.c ****     // Set Memory Write Mode
  48:../display_functions.c ****     OLED_Command_160128RGB(0x16);
 2238              	 .loc 3 48 0
 2239 0078 1620     	 movs r0,#22
 2240 007a FFF7FEFF 	 bl OLED_Command_160128RGB
  49:../display_functions.c ****     OLED_Data_160128RGB(0x76);
 2241              	 .loc 3 49 0
 2242 007e 7620     	 movs r0,#118
 2243 0080 FFF7FEFF 	 bl OLED_Data_160128RGB
  50:../display_functions.c **** 
  51:../display_functions.c ****     // driving current r g b (uA)
  52:../display_functions.c ****     OLED_Command_160128RGB(0x10);
 2244              	 .loc 3 52 0
 2245 0084 1020     	 movs r0,#16
 2246 0086 FFF7FEFF 	 bl OLED_Command_160128RGB
  53:../display_functions.c ****     OLED_Data_160128RGB(0x45);
 2247              	 .loc 3 53 0
 2248 008a 4520     	 movs r0,#69
 2249 008c FFF7FEFF 	 bl OLED_Data_160128RGB
  54:../display_functions.c ****     OLED_Command_160128RGB(0x11);
 2250              	 .loc 3 54 0
 2251 0090 1120     	 movs r0,#17
 2252 0092 FFF7FEFF 	 bl OLED_Command_160128RGB
  55:../display_functions.c ****     OLED_Data_160128RGB(0x34);
 2253              	 .loc 3 55 0
 2254 0096 3420     	 movs r0,#52
 2255 0098 FFF7FEFF 	 bl OLED_Data_160128RGB
  56:../display_functions.c ****     OLED_Command_160128RGB(0x12);
 2256              	 .loc 3 56 0
 2257 009c 1220     	 movs r0,#18
 2258 009e FFF7FEFF 	 bl OLED_Command_160128RGB
  57:../display_functions.c ****     OLED_Data_160128RGB(0x33);
 2259              	 .loc 3 57 0
 2260 00a2 3320     	 movs r0,#51
 2261 00a4 FFF7FEFF 	 bl OLED_Data_160128RGB
  58:../display_functions.c **** 
  59:../display_functions.c ****     // precharge time r g b
  60:../display_functions.c ****     OLED_Command_160128RGB(0x08);
 2262              	 .loc 3 60 0
 2263 00a8 0820     	 movs r0,#8
 2264 00aa FFF7FEFF 	 bl OLED_Command_160128RGB
  61:../display_functions.c ****     OLED_Data_160128RGB(0x04);
 2265              	 .loc 3 61 0
 2266 00ae 0420     	 movs r0,#4
 2267 00b0 FFF7FEFF 	 bl OLED_Data_160128RGB
  62:../display_functions.c ****     OLED_Command_160128RGB(0x09);
 2268              	 .loc 3 62 0
 2269 00b4 0920     	 movs r0,#9
 2270 00b6 FFF7FEFF 	 bl OLED_Command_160128RGB
  63:../display_functions.c ****     OLED_Data_160128RGB(0x05);
 2271              	 .loc 3 63 0
 2272 00ba 0520     	 movs r0,#5
 2273 00bc FFF7FEFF 	 bl OLED_Data_160128RGB
  64:../display_functions.c ****     OLED_Command_160128RGB(0x0A);
 2274              	 .loc 3 64 0
 2275 00c0 0A20     	 movs r0,#10
 2276 00c2 FFF7FEFF 	 bl OLED_Command_160128RGB
  65:../display_functions.c ****     OLED_Data_160128RGB(0x05);
 2277              	 .loc 3 65 0
 2278 00c6 0520     	 movs r0,#5
 2279 00c8 FFF7FEFF 	 bl OLED_Data_160128RGB
  66:../display_functions.c **** 
  67:../display_functions.c ****     // precharge current r g b (uA)
  68:../display_functions.c ****     OLED_Command_160128RGB(0x0B);
 2280              	 .loc 3 68 0
 2281 00cc 0B20     	 movs r0,#11
 2282 00ce FFF7FEFF 	 bl OLED_Command_160128RGB
  69:../display_functions.c ****     OLED_Data_160128RGB(0x9D);
 2283              	 .loc 3 69 0
 2284 00d2 9D20     	 movs r0,#157
 2285 00d4 FFF7FEFF 	 bl OLED_Data_160128RGB
  70:../display_functions.c ****     OLED_Command_160128RGB(0x0C);
 2286              	 .loc 3 70 0
 2287 00d8 0C20     	 movs r0,#12
 2288 00da FFF7FEFF 	 bl OLED_Command_160128RGB
  71:../display_functions.c ****     OLED_Data_160128RGB(0x8C);
 2289              	 .loc 3 71 0
 2290 00de 8C20     	 movs r0,#140
 2291 00e0 FFF7FEFF 	 bl OLED_Data_160128RGB
  72:../display_functions.c ****     OLED_Command_160128RGB(0x0D);
 2292              	 .loc 3 72 0
 2293 00e4 0D20     	 movs r0,#13
 2294 00e6 FFF7FEFF 	 bl OLED_Command_160128RGB
  73:../display_functions.c ****     OLED_Data_160128RGB(0x57);
 2295              	 .loc 3 73 0
 2296 00ea 5720     	 movs r0,#87
 2297 00ec FFF7FEFF 	 bl OLED_Data_160128RGB
  74:../display_functions.c **** 
  75:../display_functions.c ****     // Set Reference Voltage Controlled by External Resister
  76:../display_functions.c ****     OLED_Command_160128RGB(0x80);
 2298              	 .loc 3 76 0
 2299 00f0 8020     	 movs r0,#128
 2300 00f2 FFF7FEFF 	 bl OLED_Command_160128RGB
  77:../display_functions.c ****     OLED_Data_160128RGB(0x00);
 2301              	 .loc 3 77 0
 2302 00f6 0020     	 movs r0,#0
 2303 00f8 FFF7FEFF 	 bl OLED_Data_160128RGB
  78:../display_functions.c **** 
  79:../display_functions.c ****     // mode set
  80:../display_functions.c ****     OLED_Command_160128RGB(0x13);
 2304              	 .loc 3 80 0
 2305 00fc 1320     	 movs r0,#19
 2306 00fe FFF7FEFF 	 bl OLED_Command_160128RGB
  81:../display_functions.c ****     OLED_Data_160128RGB(0xA0);
 2307              	 .loc 3 81 0
 2308 0102 A020     	 movs r0,#160
 2309 0104 FFF7FEFF 	 bl OLED_Data_160128RGB
  82:../display_functions.c **** 
  83:../display_functions.c ****     OLED_SetColumnAddress_160128RGB(0, 159);
 2310              	 .loc 3 83 0
 2311 0108 0020     	 movs r0,#0
 2312 010a 9F21     	 movs r1,#159
 2313 010c FFF7FEFF 	 bl OLED_SetColumnAddress_160128RGB
  84:../display_functions.c ****     OLED_SetRowAddress_160128RGB(0, 127);
 2314              	 .loc 3 84 0
 2315 0110 0020     	 movs r0,#0
 2316 0112 7F21     	 movs r1,#127
 2317 0114 FFF7FEFF 	 bl OLED_SetRowAddress_160128RGB
  85:../display_functions.c **** 
  86:../display_functions.c ****     // Display On
  87:../display_functions.c ****     OLED_Command_160128RGB(0x06);
 2318              	 .loc 3 87 0
 2319 0118 0620     	 movs r0,#6
 2320 011a FFF7FEFF 	 bl OLED_Command_160128RGB
  88:../display_functions.c ****     OLED_Data_160128RGB(0x01);
 2321              	 .loc 3 88 0
 2322 011e 0120     	 movs r0,#1
 2323 0120 FFF7FEFF 	 bl OLED_Data_160128RGB
  89:../display_functions.c **** 
  90:../display_functions.c ****     OLED_FillScreen_160128RGB(BLACK);                // fill screen with black
 2324              	 .loc 3 90 0
 2325 0124 0020     	 movs r0,#0
 2326 0126 FFF7FEFF 	 bl OLED_FillScreen_160128RGB
  91:../display_functions.c **** 
  92:../display_functions.c ****    // OLED_NHDText_160128RGB(GREEN, BLACK);            // show NEWHAVEN DISPLAY
  93:../display_functions.c **** 
  94:../display_functions.c ****     OLED_Text_160128RGB(20, 58, 40, WHITE, BLACK);   // H
 2327              	 .loc 3 94 0
 2328 012a 0023     	 movs r3,#0
 2329 012c 0093     	 str r3,[sp]
 2330 012e 1420     	 movs r0,#20
 2331 0130 3A21     	 movs r1,#58
 2332 0132 2822     	 movs r2,#40
 2333 0134 6FF07F43 	 mvn r3,#-16777216
 2334 0138 FFF7FEFF 	 bl OLED_Text_160128RGB
  95:../display_functions.c **** 	OLED_Text_160128RGB(27, 58, 69, WHITE, BLACK);   // e
 2335              	 .loc 3 95 0
 2336 013c 0023     	 movs r3,#0
 2337 013e 0093     	 str r3,[sp]
 2338 0140 1B20     	 movs r0,#27
 2339 0142 3A21     	 movs r1,#58
 2340 0144 4522     	 movs r2,#69
 2341 0146 6FF07F43 	 mvn r3,#-16777216
 2342 014a FFF7FEFF 	 bl OLED_Text_160128RGB
  96:../display_functions.c **** 	OLED_Text_160128RGB(34, 58, 76, WHITE, BLACK);   // l
 2343              	 .loc 3 96 0
 2344 014e 0023     	 movs r3,#0
 2345 0150 0093     	 str r3,[sp]
 2346 0152 2220     	 movs r0,#34
 2347 0154 3A21     	 movs r1,#58
 2348 0156 4C22     	 movs r2,#76
 2349 0158 6FF07F43 	 mvn r3,#-16777216
 2350 015c FFF7FEFF 	 bl OLED_Text_160128RGB
  97:../display_functions.c **** 	OLED_Text_160128RGB(41, 58, 76, WHITE, BLACK);   // l
 2351              	 .loc 3 97 0
 2352 0160 0023     	 movs r3,#0
 2353 0162 0093     	 str r3,[sp]
 2354 0164 2920     	 movs r0,#41
 2355 0166 3A21     	 movs r1,#58
 2356 0168 4C22     	 movs r2,#76
 2357 016a 6FF07F43 	 mvn r3,#-16777216
 2358 016e FFF7FEFF 	 bl OLED_Text_160128RGB
  98:../display_functions.c **** 	OLED_Text_160128RGB(48, 58, 79, WHITE, BLACK);   // o
 2359              	 .loc 3 98 0
 2360 0172 0023     	 movs r3,#0
 2361 0174 0093     	 str r3,[sp]
 2362 0176 3020     	 movs r0,#48
 2363 0178 3A21     	 movs r1,#58
 2364 017a 4F22     	 movs r2,#79
 2365 017c 6FF07F43 	 mvn r3,#-16777216
 2366 0180 FFF7FEFF 	 bl OLED_Text_160128RGB
  99:../display_functions.c **** 	OLED_Text_160128RGB(55, 58, 0, WHITE, BLACK);    //
 2367              	 .loc 3 99 0
 2368 0184 0023     	 movs r3,#0
 2369 0186 0093     	 str r3,[sp]
 2370 0188 3720     	 movs r0,#55
 2371 018a 3A21     	 movs r1,#58
 2372 018c 0022     	 movs r2,#0
 2373 018e 6FF07F43 	 mvn r3,#-16777216
 2374 0192 FFF7FEFF 	 bl OLED_Text_160128RGB
 100:../display_functions.c **** 
 101:../display_functions.c **** 	OLED_Text_160128RGB(62, 58, 55, WHITE, BLACK);   // W
 2375              	 .loc 3 101 0
 2376 0196 0023     	 movs r3,#0
 2377 0198 0093     	 str r3,[sp]
 2378 019a 3E20     	 movs r0,#62
 2379 019c 3A21     	 movs r1,#58
 2380 019e 3722     	 movs r2,#55
 2381 01a0 6FF07F43 	 mvn r3,#-16777216
 2382 01a4 FFF7FEFF 	 bl OLED_Text_160128RGB
 102:../display_functions.c **** 	OLED_Text_160128RGB(69, 58, 79, WHITE, BLACK);   // o
 2383              	 .loc 3 102 0
 2384 01a8 0023     	 movs r3,#0
 2385 01aa 0093     	 str r3,[sp]
 2386 01ac 4520     	 movs r0,#69
 2387 01ae 3A21     	 movs r1,#58
 2388 01b0 4F22     	 movs r2,#79
 2389 01b2 6FF07F43 	 mvn r3,#-16777216
 2390 01b6 FFF7FEFF 	 bl OLED_Text_160128RGB
 103:../display_functions.c **** 	OLED_Text_160128RGB(76, 58, 82, WHITE, BLACK);   // r
 2391              	 .loc 3 103 0
 2392 01ba 0023     	 movs r3,#0
 2393 01bc 0093     	 str r3,[sp]
 2394 01be 4C20     	 movs r0,#76
 2395 01c0 3A21     	 movs r1,#58
 2396 01c2 5222     	 movs r2,#82
 2397 01c4 6FF07F43 	 mvn r3,#-16777216
 2398 01c8 FFF7FEFF 	 bl OLED_Text_160128RGB
 104:../display_functions.c **** 	OLED_Text_160128RGB(83, 58, 76, WHITE, BLACK);   // l
 2399              	 .loc 3 104 0
 2400 01cc 0023     	 movs r3,#0
 2401 01ce 0093     	 str r3,[sp]
 2402 01d0 5320     	 movs r0,#83
 2403 01d2 3A21     	 movs r1,#58
 2404 01d4 4C22     	 movs r2,#76
 2405 01d6 6FF07F43 	 mvn r3,#-16777216
 2406 01da FFF7FEFF 	 bl OLED_Text_160128RGB
 105:../display_functions.c **** 	OLED_Text_160128RGB(90, 58, 68, WHITE, BLACK);   // d
 2407              	 .loc 3 105 0
 2408 01de 0023     	 movs r3,#0
 2409 01e0 0093     	 str r3,[sp]
 2410 01e2 5A20     	 movs r0,#90
 2411 01e4 3A21     	 movs r1,#58
 2412 01e6 4422     	 movs r2,#68
 2413 01e8 6FF07F43 	 mvn r3,#-16777216
 2414 01ec FFF7FEFF 	 bl OLED_Text_160128RGB
 106:../display_functions.c **** 	OLED_Text_160128RGB(97, 58, 1, WHITE, BLACK);    // !
 2415              	 .loc 3 106 0
 2416 01f0 0023     	 movs r3,#0
 2417 01f2 0093     	 str r3,[sp]
 2418 01f4 6120     	 movs r0,#97
 2419 01f6 3A21     	 movs r1,#58
 2420 01f8 0122     	 movs r2,#1
 2421 01fa 6FF07F43 	 mvn r3,#-16777216
 2422 01fe FFF7FEFF 	 bl OLED_Text_160128RGB
 107:../display_functions.c **** }
 2423              	 .loc 3 107 0
 2424 0202 BD46     	 mov sp,r7
 2425              	.LCFI25:
 2426              	 .cfi_def_cfa_register 13
 2427              	 
 2428 0204 80BD     	 pop {r7,pc}
 2429              	.L7:
 2430 0206 00BF     	 .align 2
 2431              	.L6:
 2432 0208 00000000 	 .word SPI_MASTER_0
 2433 020c 00000000 	 .word RESET
 2434              	 .cfi_endproc
 2435              	.LFE310:
 2437              	 .section .text.OLED_Command_160128RGB,"ax",%progbits
 2438              	 .align 2
 2439              	 .global OLED_Command_160128RGB
 2440              	 .thumb
 2441              	 .thumb_func
 2443              	OLED_Command_160128RGB:
 2444              	.LFB311:
 108:../display_functions.c **** 
 109:../display_functions.c **** 
 110:../display_functions.c **** void OLED_Command_160128RGB(uint8_t command){
 2445              	 .loc 3 110 0
 2446              	 .cfi_startproc
 2447              	 
 2448              	 
 2449 0000 80B5     	 push {r7,lr}
 2450              	.LCFI26:
 2451              	 .cfi_def_cfa_offset 8
 2452              	 .cfi_offset 7,-8
 2453              	 .cfi_offset 14,-4
 2454 0002 82B0     	 sub sp,sp,#8
 2455              	.LCFI27:
 2456              	 .cfi_def_cfa_offset 16
 2457 0004 00AF     	 add r7,sp,#0
 2458              	.LCFI28:
 2459              	 .cfi_def_cfa_register 7
 2460 0006 0346     	 mov r3,r0
 2461 0008 FB71     	 strb r3,[r7,#7]
 111:../display_functions.c **** 	DIGITAL_IO_SetOutputLow(&REGISTER_SIGNAL);
 2462              	 .loc 3 111 0
 2463 000a 0948     	 ldr r0,.L9
 2464 000c FFF7FEFF 	 bl DIGITAL_IO_SetOutputLow
 112:../display_functions.c **** 	DIGITAL_IO_SetOutputLow(&OLED_CS);
 2465              	 .loc 3 112 0
 2466 0010 0848     	 ldr r0,.L9+4
 2467 0012 FFF7FEFF 	 bl DIGITAL_IO_SetOutputLow
 113:../display_functions.c **** 	SPI_MASTER_Transmit(&SPI_MASTER_0, command, sizeof(command));
 2468              	 .loc 3 113 0
 2469 0016 FB79     	 ldrb r3,[r7,#7]
 2470 0018 0748     	 ldr r0,.L9+8
 2471 001a 1946     	 mov r1,r3
 2472 001c 0122     	 movs r2,#1
 2473 001e FFF7FEFF 	 bl SPI_MASTER_Transmit
 114:../display_functions.c **** 	DIGITAL_IO_SetOutputHigh(&REGISTER_SIGNAL);
 2474              	 .loc 3 114 0
 2475 0022 0348     	 ldr r0,.L9
 2476 0024 FFF7FEFF 	 bl DIGITAL_IO_SetOutputHigh
 115:../display_functions.c **** 	}
 2477              	 .loc 3 115 0
 2478 0028 0837     	 adds r7,r7,#8
 2479              	.LCFI29:
 2480              	 .cfi_def_cfa_offset 8
 2481 002a BD46     	 mov sp,r7
 2482              	.LCFI30:
 2483              	 .cfi_def_cfa_register 13
 2484              	 
 2485 002c 80BD     	 pop {r7,pc}
 2486              	.L10:
 2487 002e 00BF     	 .align 2
 2488              	.L9:
 2489 0030 00000000 	 .word REGISTER_SIGNAL
 2490 0034 00000000 	 .word OLED_CS
 2491 0038 00000000 	 .word SPI_MASTER_0
 2492              	 .cfi_endproc
 2493              	.LFE311:
 2495              	 .section .text.OLED_Data_160128RGB,"ax",%progbits
 2496              	 .align 2
 2497              	 .global OLED_Data_160128RGB
 2498              	 .thumb
 2499              	 .thumb_func
 2501              	OLED_Data_160128RGB:
 2502              	.LFB312:
 116:../display_functions.c **** 
 117:../display_functions.c **** void OLED_Data_160128RGB(uint8_t data){
 2503              	 .loc 3 117 0
 2504              	 .cfi_startproc
 2505              	 
 2506              	 
 2507 0000 80B5     	 push {r7,lr}
 2508              	.LCFI31:
 2509              	 .cfi_def_cfa_offset 8
 2510              	 .cfi_offset 7,-8
 2511              	 .cfi_offset 14,-4
 2512 0002 82B0     	 sub sp,sp,#8
 2513              	.LCFI32:
 2514              	 .cfi_def_cfa_offset 16
 2515 0004 00AF     	 add r7,sp,#0
 2516              	.LCFI33:
 2517              	 .cfi_def_cfa_register 7
 2518 0006 0346     	 mov r3,r0
 2519 0008 FB71     	 strb r3,[r7,#7]
 118:../display_functions.c **** 	SPI_MASTER_Transmit(&SPI_MASTER_0, data, sizeof(data));
 2520              	 .loc 3 118 0
 2521 000a FB79     	 ldrb r3,[r7,#7]
 2522 000c 0348     	 ldr r0,.L12
 2523 000e 1946     	 mov r1,r3
 2524 0010 0122     	 movs r2,#1
 2525 0012 FFF7FEFF 	 bl SPI_MASTER_Transmit
 119:../display_functions.c **** }
 2526              	 .loc 3 119 0
 2527 0016 0837     	 adds r7,r7,#8
 2528              	.LCFI34:
 2529              	 .cfi_def_cfa_offset 8
 2530 0018 BD46     	 mov sp,r7
 2531              	.LCFI35:
 2532              	 .cfi_def_cfa_register 13
 2533              	 
 2534 001a 80BD     	 pop {r7,pc}
 2535              	.L13:
 2536              	 .align 2
 2537              	.L12:
 2538 001c 00000000 	 .word SPI_MASTER_0
 2539              	 .cfi_endproc
 2540              	.LFE312:
 2542              	 .section .text.OLED_Text_160128RGB,"ax",%progbits
 2543              	 .align 2
 2544              	 .global OLED_Text_160128RGB
 2545              	 .thumb
 2546              	 .thumb_func
 2548              	OLED_Text_160128RGB:
 2549              	.LFB313:
 120:../display_functions.c **** 
 121:../display_functions.c **** void OLED_Text_160128RGB(unsigned char x_pos, unsigned char y_pos, unsigned char letter, unsigned l
 122:../display_functions.c **** {
 2550              	 .loc 3 122 0
 2551              	 .cfi_startproc
 2552              	 
 2553              	 
 2554 0000 80B5     	 push {r7,lr}
 2555              	.LCFI36:
 2556              	 .cfi_def_cfa_offset 8
 2557              	 .cfi_offset 7,-8
 2558              	 .cfi_offset 14,-4
 2559 0002 86B0     	 sub sp,sp,#24
 2560              	.LCFI37:
 2561              	 .cfi_def_cfa_offset 32
 2562 0004 00AF     	 add r7,sp,#0
 2563              	.LCFI38:
 2564              	 .cfi_def_cfa_register 7
 2565 0006 3B60     	 str r3,[r7]
 2566 0008 0346     	 mov r3,r0
 2567 000a FB71     	 strb r3,[r7,#7]
 2568 000c 0B46     	 mov r3,r1
 2569 000e BB71     	 strb r3,[r7,#6]
 2570 0010 1346     	 mov r3,r2
 2571 0012 7B71     	 strb r3,[r7,#5]
 123:../display_functions.c ****     int i;
 124:../display_functions.c ****     int count;
 125:../display_functions.c ****     unsigned char mask = 0x80;
 2572              	 .loc 3 125 0
 2573 0014 8023     	 movs r3,#128
 2574 0016 FB73     	 strb r3,[r7,#15]
 126:../display_functions.c **** 
 127:../display_functions.c ****     for(i=0;i<8;i++)     // each character is 8 pixels tall
 2575              	 .loc 3 127 0
 2576 0018 0023     	 movs r3,#0
 2577 001a 7B61     	 str r3,[r7,#20]
 2578 001c 2FE0     	 b .L15
 2579              	.L20:
 128:../display_functions.c ****     {
 129:../display_functions.c ****         OLED_SetPosition_160128RGB(x_pos,y_pos);
 2580              	 .loc 3 129 0
 2581 001e FA79     	 ldrb r2,[r7,#7]
 2582 0020 BB79     	 ldrb r3,[r7,#6]
 2583 0022 1046     	 mov r0,r2
 2584 0024 1946     	 mov r1,r3
 2585 0026 FFF7FEFF 	 bl OLED_SetPosition_160128RGB
 130:../display_functions.c ****         OLED_WriteMemoryStart_160128RGB();
 2586              	 .loc 3 130 0
 2587 002a FFF7FEFF 	 bl OLED_WriteMemoryStart_160128RGB
 131:../display_functions.c ****         for (count=0;count<5;count++)    // each character is 5 pixels wide
 2588              	 .loc 3 131 0
 2589 002e 0023     	 movs r3,#0
 2590 0030 3B61     	 str r3,[r7,#16]
 2591 0032 18E0     	 b .L16
 2592              	.L19:
 132:../display_functions.c ****         {
 133:../display_functions.c ****             if((Ascii_1[letter][count] & mask) == mask)
 2593              	 .loc 3 133 0
 2594 0034 7A79     	 ldrb r2,[r7,#5]
 2595 0036 1549     	 ldr r1,.L21
 2596 0038 1346     	 mov r3,r2
 2597 003a 9B00     	 lsls r3,r3,#2
 2598 003c 1344     	 add r3,r3,r2
 2599 003e 3A69     	 ldr r2,[r7,#16]
 2600 0040 1344     	 add r3,r3,r2
 2601 0042 0B44     	 add r3,r3,r1
 2602 0044 1A78     	 ldrb r2,[r3]
 2603 0046 FB7B     	 ldrb r3,[r7,#15]
 2604 0048 1340     	 ands r3,r3,r2
 2605 004a DBB2     	 uxtb r3,r3
 2606 004c FA7B     	 ldrb r2,[r7,#15]
 2607 004e 9A42     	 cmp r2,r3
 2608 0050 03D1     	 bne .L17
 134:../display_functions.c ****                 OLED_Pixel_160128RGB(textColor);
 2609              	 .loc 3 134 0
 2610 0052 3868     	 ldr r0,[r7]
 2611 0054 FFF7FEFF 	 bl OLED_Pixel_160128RGB
 2612 0058 02E0     	 b .L18
 2613              	.L17:
 135:../display_functions.c ****             else
 136:../display_functions.c ****                 OLED_Pixel_160128RGB(backgroundColor);
 2614              	 .loc 3 136 0
 2615 005a 386A     	 ldr r0,[r7,#32]
 2616 005c FFF7FEFF 	 bl OLED_Pixel_160128RGB
 2617              	.L18:
 131:../display_functions.c ****         {
 2618              	 .loc 3 131 0 discriminator 2
 2619 0060 3B69     	 ldr r3,[r7,#16]
 2620 0062 0133     	 adds r3,r3,#1
 2621 0064 3B61     	 str r3,[r7,#16]
 2622              	.L16:
 131:../display_functions.c ****         {
 2623              	 .loc 3 131 0 is_stmt 0 discriminator 1
 2624 0066 3B69     	 ldr r3,[r7,#16]
 2625 0068 042B     	 cmp r3,#4
 2626 006a E3DD     	 ble .L19
 137:../display_functions.c ****         }
 138:../display_functions.c ****         y_pos++;
 2627              	 .loc 3 138 0 is_stmt 1 discriminator 2
 2628 006c BB79     	 ldrb r3,[r7,#6]
 2629 006e 0133     	 adds r3,r3,#1
 2630 0070 BB71     	 strb r3,[r7,#6]
 139:../display_functions.c ****         mask = mask >> 1;
 2631              	 .loc 3 139 0 discriminator 2
 2632 0072 FB7B     	 ldrb r3,[r7,#15]
 2633 0074 5B08     	 lsrs r3,r3,#1
 2634 0076 FB73     	 strb r3,[r7,#15]
 127:../display_functions.c ****     {
 2635              	 .loc 3 127 0 discriminator 2
 2636 0078 7B69     	 ldr r3,[r7,#20]
 2637 007a 0133     	 adds r3,r3,#1
 2638 007c 7B61     	 str r3,[r7,#20]
 2639              	.L15:
 127:../display_functions.c ****     {
 2640              	 .loc 3 127 0 is_stmt 0 discriminator 1
 2641 007e 7B69     	 ldr r3,[r7,#20]
 2642 0080 072B     	 cmp r3,#7
 2643 0082 CCDD     	 ble .L20
 140:../display_functions.c ****     }
 141:../display_functions.c **** }
 2644              	 .loc 3 141 0 is_stmt 1
 2645 0084 1837     	 adds r7,r7,#24
 2646              	.LCFI39:
 2647              	 .cfi_def_cfa_offset 8
 2648 0086 BD46     	 mov sp,r7
 2649              	.LCFI40:
 2650              	 .cfi_def_cfa_register 13
 2651              	 
 2652 0088 80BD     	 pop {r7,pc}
 2653              	.L22:
 2654 008a 00BF     	 .align 2
 2655              	.L21:
 2656 008c 00000000 	 .word Ascii_1
 2657              	 .cfi_endproc
 2658              	.LFE313:
 2660              	 .section .text.OLED_SetColumnAddress_160128RGB,"ax",%progbits
 2661              	 .align 2
 2662              	 .global OLED_SetColumnAddress_160128RGB
 2663              	 .thumb
 2664              	 .thumb_func
 2666              	OLED_SetColumnAddress_160128RGB:
 2667              	.LFB314:
 142:../display_functions.c **** 
 143:../display_functions.c **** void OLED_SetColumnAddress_160128RGB(unsigned char x_start, unsigned char x_end){
 2668              	 .loc 3 143 0
 2669              	 .cfi_startproc
 2670              	 
 2671              	 
 2672 0000 80B5     	 push {r7,lr}
 2673              	.LCFI41:
 2674              	 .cfi_def_cfa_offset 8
 2675              	 .cfi_offset 7,-8
 2676              	 .cfi_offset 14,-4
 2677 0002 82B0     	 sub sp,sp,#8
 2678              	.LCFI42:
 2679              	 .cfi_def_cfa_offset 16
 2680 0004 00AF     	 add r7,sp,#0
 2681              	.LCFI43:
 2682              	 .cfi_def_cfa_register 7
 2683 0006 0346     	 mov r3,r0
 2684 0008 0A46     	 mov r2,r1
 2685 000a FB71     	 strb r3,[r7,#7]
 2686 000c 1346     	 mov r3,r2
 2687 000e BB71     	 strb r3,[r7,#6]
 144:../display_functions.c ****     OLED_Command_160128RGB(0x17);
 2688              	 .loc 3 144 0
 2689 0010 1720     	 movs r0,#23
 2690 0012 FFF7FEFF 	 bl OLED_Command_160128RGB
 145:../display_functions.c ****     OLED_Data_160128RGB(x_start);
 2691              	 .loc 3 145 0
 2692 0016 FB79     	 ldrb r3,[r7,#7]
 2693 0018 1846     	 mov r0,r3
 2694 001a FFF7FEFF 	 bl OLED_Data_160128RGB
 146:../display_functions.c ****     OLED_Command_160128RGB(0x18);
 2695              	 .loc 3 146 0
 2696 001e 1820     	 movs r0,#24
 2697 0020 FFF7FEFF 	 bl OLED_Command_160128RGB
 147:../display_functions.c ****     OLED_Data_160128RGB(x_end);
 2698              	 .loc 3 147 0
 2699 0024 BB79     	 ldrb r3,[r7,#6]
 2700 0026 1846     	 mov r0,r3
 2701 0028 FFF7FEFF 	 bl OLED_Data_160128RGB
 148:../display_functions.c **** }
 2702              	 .loc 3 148 0
 2703 002c 0837     	 adds r7,r7,#8
 2704              	.LCFI44:
 2705              	 .cfi_def_cfa_offset 8
 2706 002e BD46     	 mov sp,r7
 2707              	.LCFI45:
 2708              	 .cfi_def_cfa_register 13
 2709              	 
 2710 0030 80BD     	 pop {r7,pc}
 2711              	 .cfi_endproc
 2712              	.LFE314:
 2714 0032 00BF     	 .section .text.OLED_SetRowAddress_160128RGB,"ax",%progbits
 2715              	 .align 2
 2716              	 .global OLED_SetRowAddress_160128RGB
 2717              	 .thumb
 2718              	 .thumb_func
 2720              	OLED_SetRowAddress_160128RGB:
 2721              	.LFB315:
 149:../display_functions.c **** 
 150:../display_functions.c **** void OLED_SetRowAddress_160128RGB(unsigned char y_start, unsigned char y_end){
 2722              	 .loc 3 150 0
 2723              	 .cfi_startproc
 2724              	 
 2725              	 
 2726 0000 80B5     	 push {r7,lr}
 2727              	.LCFI46:
 2728              	 .cfi_def_cfa_offset 8
 2729              	 .cfi_offset 7,-8
 2730              	 .cfi_offset 14,-4
 2731 0002 82B0     	 sub sp,sp,#8
 2732              	.LCFI47:
 2733              	 .cfi_def_cfa_offset 16
 2734 0004 00AF     	 add r7,sp,#0
 2735              	.LCFI48:
 2736              	 .cfi_def_cfa_register 7
 2737 0006 0346     	 mov r3,r0
 2738 0008 0A46     	 mov r2,r1
 2739 000a FB71     	 strb r3,[r7,#7]
 2740 000c 1346     	 mov r3,r2
 2741 000e BB71     	 strb r3,[r7,#6]
 151:../display_functions.c ****     OLED_Command_160128RGB(0x19);
 2742              	 .loc 3 151 0
 2743 0010 1920     	 movs r0,#25
 2744 0012 FFF7FEFF 	 bl OLED_Command_160128RGB
 152:../display_functions.c ****     OLED_Data_160128RGB(y_start);
 2745              	 .loc 3 152 0
 2746 0016 FB79     	 ldrb r3,[r7,#7]
 2747 0018 1846     	 mov r0,r3
 2748 001a FFF7FEFF 	 bl OLED_Data_160128RGB
 153:../display_functions.c ****     OLED_Command_160128RGB(0x1A);
 2749              	 .loc 3 153 0
 2750 001e 1A20     	 movs r0,#26
 2751 0020 FFF7FEFF 	 bl OLED_Command_160128RGB
 154:../display_functions.c ****     OLED_Data_160128RGB(y_end);
 2752              	 .loc 3 154 0
 2753 0024 BB79     	 ldrb r3,[r7,#6]
 2754 0026 1846     	 mov r0,r3
 2755 0028 FFF7FEFF 	 bl OLED_Data_160128RGB
 155:../display_functions.c **** }
 2756              	 .loc 3 155 0
 2757 002c 0837     	 adds r7,r7,#8
 2758              	.LCFI49:
 2759              	 .cfi_def_cfa_offset 8
 2760 002e BD46     	 mov sp,r7
 2761              	.LCFI50:
 2762              	 .cfi_def_cfa_register 13
 2763              	 
 2764 0030 80BD     	 pop {r7,pc}
 2765              	 .cfi_endproc
 2766              	.LFE315:
 2768 0032 00BF     	 .section .text.OLED_FillScreen_160128RGB,"ax",%progbits
 2769              	 .align 2
 2770              	 .global OLED_FillScreen_160128RGB
 2771              	 .thumb
 2772              	 .thumb_func
 2774              	OLED_FillScreen_160128RGB:
 2775              	.LFB316:
 156:../display_functions.c **** 
 157:../display_functions.c **** void OLED_FillScreen_160128RGB(unsigned long color)    // fill screen with a given color
 158:../display_functions.c **** {
 2776              	 .loc 3 158 0
 2777              	 .cfi_startproc
 2778              	 
 2779              	 
 2780 0000 80B5     	 push {r7,lr}
 2781              	.LCFI51:
 2782              	 .cfi_def_cfa_offset 8
 2783              	 .cfi_offset 7,-8
 2784              	 .cfi_offset 14,-4
 2785 0002 84B0     	 sub sp,sp,#16
 2786              	.LCFI52:
 2787              	 .cfi_def_cfa_offset 24
 2788 0004 00AF     	 add r7,sp,#0
 2789              	.LCFI53:
 2790              	 .cfi_def_cfa_register 7
 2791 0006 7860     	 str r0,[r7,#4]
 159:../display_functions.c ****     unsigned int i;
 160:../display_functions.c ****     OLED_SetPosition_160128RGB(0,0);
 2792              	 .loc 3 160 0
 2793 0008 0020     	 movs r0,#0
 2794 000a 0021     	 movs r1,#0
 2795 000c FFF7FEFF 	 bl OLED_SetPosition_160128RGB
 161:../display_functions.c ****     OLED_WriteMemoryStart_160128RGB();
 2796              	 .loc 3 161 0
 2797 0010 FFF7FEFF 	 bl OLED_WriteMemoryStart_160128RGB
 162:../display_functions.c ****     for(i=0;i<20480;i++)
 2798              	 .loc 3 162 0
 2799 0014 0023     	 movs r3,#0
 2800 0016 FB60     	 str r3,[r7,#12]
 2801 0018 05E0     	 b .L26
 2802              	.L27:
 163:../display_functions.c ****     {
 164:../display_functions.c ****         OLED_Pixel_160128RGB(color);
 2803              	 .loc 3 164 0 discriminator 3
 2804 001a 7868     	 ldr r0,[r7,#4]
 2805 001c FFF7FEFF 	 bl OLED_Pixel_160128RGB
 162:../display_functions.c ****     for(i=0;i<20480;i++)
 2806              	 .loc 3 162 0 discriminator 3
 2807 0020 FB68     	 ldr r3,[r7,#12]
 2808 0022 0133     	 adds r3,r3,#1
 2809 0024 FB60     	 str r3,[r7,#12]
 2810              	.L26:
 162:../display_functions.c ****     for(i=0;i<20480;i++)
 2811              	 .loc 3 162 0 is_stmt 0 discriminator 1
 2812 0026 FB68     	 ldr r3,[r7,#12]
 2813 0028 B3F5A04F 	 cmp r3,#20480
 2814 002c F5D3     	 bcc .L27
 165:../display_functions.c ****     }
 166:../display_functions.c **** }
 2815              	 .loc 3 166 0 is_stmt 1
 2816 002e 1037     	 adds r7,r7,#16
 2817              	.LCFI54:
 2818              	 .cfi_def_cfa_offset 8
 2819 0030 BD46     	 mov sp,r7
 2820              	.LCFI55:
 2821              	 .cfi_def_cfa_register 13
 2822              	 
 2823 0032 80BD     	 pop {r7,pc}
 2824              	 .cfi_endproc
 2825              	.LFE316:
 2827              	 .section .text.OLED_SetPosition_160128RGB,"ax",%progbits
 2828              	 .align 2
 2829              	 .global OLED_SetPosition_160128RGB
 2830              	 .thumb
 2831              	 .thumb_func
 2833              	OLED_SetPosition_160128RGB:
 2834              	.LFB317:
 167:../display_functions.c **** 
 168:../display_functions.c **** void OLED_SetPosition_160128RGB(unsigned char x_pos, unsigned char y_pos)    // set x,y address
 169:../display_functions.c **** {
 2835              	 .loc 3 169 0
 2836              	 .cfi_startproc
 2837              	 
 2838              	 
 2839 0000 80B5     	 push {r7,lr}
 2840              	.LCFI56:
 2841              	 .cfi_def_cfa_offset 8
 2842              	 .cfi_offset 7,-8
 2843              	 .cfi_offset 14,-4
 2844 0002 82B0     	 sub sp,sp,#8
 2845              	.LCFI57:
 2846              	 .cfi_def_cfa_offset 16
 2847 0004 00AF     	 add r7,sp,#0
 2848              	.LCFI58:
 2849              	 .cfi_def_cfa_register 7
 2850 0006 0346     	 mov r3,r0
 2851 0008 0A46     	 mov r2,r1
 2852 000a FB71     	 strb r3,[r7,#7]
 2853 000c 1346     	 mov r3,r2
 2854 000e BB71     	 strb r3,[r7,#6]
 170:../display_functions.c ****     OLED_Command_160128RGB(0x20);
 2855              	 .loc 3 170 0
 2856 0010 2020     	 movs r0,#32
 2857 0012 FFF7FEFF 	 bl OLED_Command_160128RGB
 171:../display_functions.c ****     OLED_Data_160128RGB(x_pos);
 2858              	 .loc 3 171 0
 2859 0016 FB79     	 ldrb r3,[r7,#7]
 2860 0018 1846     	 mov r0,r3
 2861 001a FFF7FEFF 	 bl OLED_Data_160128RGB
 172:../display_functions.c ****     OLED_Command_160128RGB(0x21);
 2862              	 .loc 3 172 0
 2863 001e 2120     	 movs r0,#33
 2864 0020 FFF7FEFF 	 bl OLED_Command_160128RGB
 173:../display_functions.c ****     OLED_Data_160128RGB(y_pos);
 2865              	 .loc 3 173 0
 2866 0024 BB79     	 ldrb r3,[r7,#6]
 2867 0026 1846     	 mov r0,r3
 2868 0028 FFF7FEFF 	 bl OLED_Data_160128RGB
 174:../display_functions.c **** }
 2869              	 .loc 3 174 0
 2870 002c 0837     	 adds r7,r7,#8
 2871              	.LCFI59:
 2872              	 .cfi_def_cfa_offset 8
 2873 002e BD46     	 mov sp,r7
 2874              	.LCFI60:
 2875              	 .cfi_def_cfa_register 13
 2876              	 
 2877 0030 80BD     	 pop {r7,pc}
 2878              	 .cfi_endproc
 2879              	.LFE317:
 2881 0032 00BF     	 .section .text.OLED_WriteMemoryStart_160128RGB,"ax",%progbits
 2882              	 .align 2
 2883              	 .global OLED_WriteMemoryStart_160128RGB
 2884              	 .thumb
 2885              	 .thumb_func
 2887              	OLED_WriteMemoryStart_160128RGB:
 2888              	.LFB318:
 175:../display_functions.c **** 
 176:../display_functions.c **** void OLED_WriteMemoryStart_160128RGB(void)    // write to RAM command
 177:../display_functions.c **** {
 2889              	 .loc 3 177 0
 2890              	 .cfi_startproc
 2891              	 
 2892              	 
 2893 0000 80B5     	 push {r7,lr}
 2894              	.LCFI61:
 2895              	 .cfi_def_cfa_offset 8
 2896              	 .cfi_offset 7,-8
 2897              	 .cfi_offset 14,-4
 2898 0002 00AF     	 add r7,sp,#0
 2899              	.LCFI62:
 2900              	 .cfi_def_cfa_register 7
 178:../display_functions.c ****     OLED_Command_160128RGB(0x22);
 2901              	 .loc 3 178 0
 2902 0004 2220     	 movs r0,#34
 2903 0006 FFF7FEFF 	 bl OLED_Command_160128RGB
 179:../display_functions.c **** }
 2904              	 .loc 3 179 0
 2905 000a 80BD     	 pop {r7,pc}
 2906              	 .cfi_endproc
 2907              	.LFE318:
 2909              	 .section .text.OLED_Pixel_160128RGB,"ax",%progbits
 2910              	 .align 2
 2911              	 .global OLED_Pixel_160128RGB
 2912              	 .thumb
 2913              	 .thumb_func
 2915              	OLED_Pixel_160128RGB:
 2916              	.LFB319:
 180:../display_functions.c **** 
 181:../display_functions.c **** void OLED_Pixel_160128RGB(unsigned long color)    // write one pixel of a given color
 182:../display_functions.c **** {
 2917              	 .loc 3 182 0
 2918              	 .cfi_startproc
 2919              	 
 2920              	 
 2921 0000 80B5     	 push {r7,lr}
 2922              	.LCFI63:
 2923              	 .cfi_def_cfa_offset 8
 2924              	 .cfi_offset 7,-8
 2925              	 .cfi_offset 14,-4
 2926 0002 82B0     	 sub sp,sp,#8
 2927              	.LCFI64:
 2928              	 .cfi_def_cfa_offset 16
 2929 0004 00AF     	 add r7,sp,#0
 2930              	.LCFI65:
 2931              	 .cfi_def_cfa_register 7
 2932 0006 7860     	 str r0,[r7,#4]
 183:../display_functions.c **** 	OLED_SerialPixelData_160128RGB((color>>16));
 2933              	 .loc 3 183 0
 2934 0008 7B68     	 ldr r3,[r7,#4]
 2935 000a 1B0C     	 lsrs r3,r3,#16
 2936 000c DBB2     	 uxtb r3,r3
 2937 000e 1846     	 mov r0,r3
 2938 0010 FFF7FEFF 	 bl OLED_SerialPixelData_160128RGB
 184:../display_functions.c **** 	OLED_SerialPixelData_160128RGB((color>>8));
 2939              	 .loc 3 184 0
 2940 0014 7B68     	 ldr r3,[r7,#4]
 2941 0016 1B0A     	 lsrs r3,r3,#8
 2942 0018 DBB2     	 uxtb r3,r3
 2943 001a 1846     	 mov r0,r3
 2944 001c FFF7FEFF 	 bl OLED_SerialPixelData_160128RGB
 185:../display_functions.c **** 	OLED_SerialPixelData_160128RGB(color);
 2945              	 .loc 3 185 0
 2946 0020 7B68     	 ldr r3,[r7,#4]
 2947 0022 DBB2     	 uxtb r3,r3
 2948 0024 1846     	 mov r0,r3
 2949 0026 FFF7FEFF 	 bl OLED_SerialPixelData_160128RGB
 186:../display_functions.c **** }
 2950              	 .loc 3 186 0
 2951 002a 0837     	 adds r7,r7,#8
 2952              	.LCFI66:
 2953              	 .cfi_def_cfa_offset 8
 2954 002c BD46     	 mov sp,r7
 2955              	.LCFI67:
 2956              	 .cfi_def_cfa_register 13
 2957              	 
 2958 002e 80BD     	 pop {r7,pc}
 2959              	 .cfi_endproc
 2960              	.LFE319:
 2962              	 .section .text.OLED_SerialPixelData_160128RGB,"ax",%progbits
 2963              	 .align 2
 2964              	 .global OLED_SerialPixelData_160128RGB
 2965              	 .thumb
 2966              	 .thumb_func
 2968              	OLED_SerialPixelData_160128RGB:
 2969              	.LFB320:
 187:../display_functions.c **** 
 188:../display_functions.c **** void OLED_SerialPixelData_160128RGB(unsigned char d)    // serial write for pixel data
 189:../display_functions.c **** {
 2970              	 .loc 3 189 0
 2971              	 .cfi_startproc
 2972              	 
 2973              	 
 2974 0000 80B5     	 push {r7,lr}
 2975              	.LCFI68:
 2976              	 .cfi_def_cfa_offset 8
 2977              	 .cfi_offset 7,-8
 2978              	 .cfi_offset 14,-4
 2979 0002 82B0     	 sub sp,sp,#8
 2980              	.LCFI69:
 2981              	 .cfi_def_cfa_offset 16
 2982 0004 00AF     	 add r7,sp,#0
 2983              	.LCFI70:
 2984              	 .cfi_def_cfa_register 7
 2985 0006 0346     	 mov r3,r0
 2986 0008 FB71     	 strb r3,[r7,#7]
 190:../display_functions.c **** 
 191:../display_functions.c ****     DIGITAL_IO_SetOutputLow(&OLED_CS);
 2987              	 .loc 3 191 0
 2988 000a 0948     	 ldr r0,.L32
 2989 000c FFF7FEFF 	 bl DIGITAL_IO_SetOutputLow
 192:../display_functions.c ****     DIGITAL_IO_SetOutputLow(&RESET);
 2990              	 .loc 3 192 0
 2991 0010 0848     	 ldr r0,.L32+4
 2992 0012 FFF7FEFF 	 bl DIGITAL_IO_SetOutputLow
 193:../display_functions.c **** 
 194:../display_functions.c **** 	SPI_MASTER_Transmit(&SPI_MASTER_0, d, sizeof(d));
 2993              	 .loc 3 194 0
 2994 0016 FB79     	 ldrb r3,[r7,#7]
 2995 0018 0748     	 ldr r0,.L32+8
 2996 001a 1946     	 mov r1,r3
 2997 001c 0122     	 movs r2,#1
 2998 001e FFF7FEFF 	 bl SPI_MASTER_Transmit
 195:../display_functions.c **** 
 196:../display_functions.c ****     DIGITAL_IO_SetOutputHigh(&OLED_CS);
 2999              	 .loc 3 196 0
 3000 0022 0348     	 ldr r0,.L32
 3001 0024 FFF7FEFF 	 bl DIGITAL_IO_SetOutputHigh
 197:../display_functions.c **** }
 3002              	 .loc 3 197 0
 3003 0028 0837     	 adds r7,r7,#8
 3004              	.LCFI71:
 3005              	 .cfi_def_cfa_offset 8
 3006 002a BD46     	 mov sp,r7
 3007              	.LCFI72:
 3008              	 .cfi_def_cfa_register 13
 3009              	 
 3010 002c 80BD     	 pop {r7,pc}
 3011              	.L33:
 3012 002e 00BF     	 .align 2
 3013              	.L32:
 3014 0030 00000000 	 .word OLED_CS
 3015 0034 00000000 	 .word RESET
 3016 0038 00000000 	 .word SPI_MASTER_0
 3017              	 .cfi_endproc
 3018              	.LFE320:
 3020              	 .text
 3021              	.Letext0:
 3022              	 .file 4 "c:\\dave_4-4-2_64bit_2018-02-23\\dave_4-4-2_64bit_2018-02-23\\dave-ide-4.4.2-64bit\\eclipse\\arm-gcc-49\\arm-none-eabi\\include\\machine\\_default_types.h"
 3023              	 .file 5 "c:\\dave_4-4-2_64bit_2018-02-23\\dave_4-4-2_64bit_2018-02-23\\dave-ide-4.4.2-64bit\\eclipse\\arm-gcc-49\\arm-none-eabi\\include\\stdint.h"
 3024              	 .file 6 "C:/Users/RGoncalves/Documents/GitHub/uControllers/XMC_Relax_Kit_Projects/NewHaven_Display/NewHaven_Display/Libraries/XMCLib/inc/xmc4_gpio.h"
 3025              	 .file 7 "C:/Users/RGoncalves/Documents/GitHub/uControllers/XMC_Relax_Kit_Projects/NewHaven_Display/NewHaven_Display/Libraries/XMCLib/inc/xmc_usic.h"
 3026              	 .file 8 "C:/Users/RGoncalves/Documents/GitHub/uControllers/XMC_Relax_Kit_Projects/NewHaven_Display/NewHaven_Display/Libraries/XMCLib/inc/xmc_spi.h"
 3027              	 .file 9 "C:/Users/RGoncalves/Documents/GitHub/uControllers/XMC_Relax_Kit_Projects/NewHaven_Display/NewHaven_Display/Dave/Generated/SPI_MASTER/spi_master.h"
 3028              	 .file 10 "C:/Users/RGoncalves/Documents/GitHub/uControllers/XMC_Relax_Kit_Projects/NewHaven_Display/NewHaven_Display/Libraries/CMSIS/Include/cmsis_gcc.h"
 3029              	 .file 11 "C:/Users/RGoncalves/Documents/GitHub/uControllers/XMC_Relax_Kit_Projects/NewHaven_Display/NewHaven_Display/Libraries/CMSIS/Include/core_cm4.h"
 3030              	 .file 12 "C:/Users/RGoncalves/Documents/GitHub/uControllers/XMC_Relax_Kit_Projects/NewHaven_Display/NewHaven_Display/Libraries/CMSIS/Infineon/XMC4700_series/Include/system_XMC4700.h"
 3031              	 .file 13 "C:/Users/RGoncalves/Documents/GitHub/uControllers/XMC_Relax_Kit_Projects/NewHaven_Display/NewHaven_Display/Dave/Generated/SPI_MASTER/spi_master_extern.h"
 3032              	 .file 14 "C:/Users/RGoncalves/Documents/GitHub/uControllers/XMC_Relax_Kit_Projects/NewHaven_Display/NewHaven_Display/Dave/Generated/DIGITAL_IO/digital_io_extern.h"
 3033              	 .file 15 "../display_database.h"